
AVRASM ver. 2.1.43  C:\Users\YO\Desktop\TFG\PruebaJuegoDesbloqueo\PruebaJuegoDesbloqueo\PruebaJuegoDesbloqueo.asm Sat Sep 14 14:13:31 2019

[builtin](2): Including file 'C:\Program Files (x86)\Atmel\AVR Studio 5.0\avrassembler\include\m32def.inc'
C:\Users\YO\Desktop\TFG\PruebaJuegoDesbloqueo\PruebaJuegoDesbloqueo\PruebaJuegoDesbloqueo.asm(17): warning: Register r29 already defined by the .DEF directive
C:\Users\YO\Desktop\TFG\PruebaJuegoDesbloqueo\PruebaJuegoDesbloqueo\PruebaJuegoDesbloqueo.asm(21): warning: Register r31 already defined by the .DEF directive
                 
                 
                 
                 ;***** Created: 2011-02-09 12:03 ******* Source: ATmega32.xml ************
                 ;*************************************************************************
                 ;* A P P L I C A T I O N   N O T E   F O R   T H E   A V R   F A M I L Y
                 ;* 
                 ;* Number            : AVR000
                 ;* File Name         : "m32def.inc"
                 ;* Title             : Register/Bit Definitions for the ATmega32
                 ;* Date              : 2011-02-09
                 ;* Version           : 2.35
                 ;* Support E-mail    : avr@atmel.com
                 ;* Target MCU        : ATmega32
                 ;* 
                 ;* DESCRIPTION
                 ;* When including this file in the assembly program file, all I/O register 
                 ;* names and I/O register bit names appearing in the data book can be used.
                 ;* In addition, the six registers forming the three data pointers X, Y and 
                 ;* Z have been assigned names XL - ZH. Highest RAM address for Internal 
                 ;* SRAM is also defined 
                 ;* 
                 ;* The Register names are represented by their hexadecimal address.
                 ;* 
                 ;* The Register Bit names are represented by their bit number (0-7).
                 ;* 
                 ;* Please observe the difference in using the bit names with instructions
                 ;* such as "sbr"/"cbr" (set/clear bit in register) and "sbrs"/"sbrc"
                 ;* (skip if bit in register set/cleared). The following example illustrates
                 ;* this:
                 ;* 
                 ;* in    r16,PORTB             ;read PORTB latch
                 ;* sbr   r16,(1<<PB6)+(1<<PB5) ;set PB6 and PB5 (use masks, not bit#)
                 ;* out   PORTB,r16             ;output to PORTB
                 ;* 
                 ;* in    r16,TIFR              ;read the Timer Interrupt Flag Register
                 ;* sbrc  r16,TOV0              ;test the overflow flag (use bit#)
                 ;* rjmp  TOV0_is_set           ;jump if set
                 ;* ...                         ;otherwise do something else
                 ;*************************************************************************
                 
                 #ifndef _M32DEF_INC_
                 #define _M32DEF_INC_
                 
                 
                 #pragma partinc 0
                 
                 ; ***** SPECIFY DEVICE ***************************************************
                 .device ATmega32
                 #pragma AVRPART ADMIN PART_NAME ATmega32
                 .equ	SIGNATURE_000	= 0x1e
                 .equ	SIGNATURE_001	= 0x95
                 .equ	SIGNATURE_002	= 0x02
                 
                 #pragma AVRPART CORE CORE_VERSION V2E
                 
                 
                 ; ***** I/O REGISTER DEFINITIONS *****************************************
                 ; NOTE:
                 ; Definitions marked "MEMORY MAPPED"are extended I/O ports
                 ; and cannot be used with IN/OUT instructions
                 .equ	SREG	= 0x3f
                 .equ	SPL	= 0x3d
                 .equ	SPH	= 0x3e
                 .equ	OCR0	= 0x3c
                 .equ	GICR	= 0x3b
                 .equ	GIFR	= 0x3a
                 .equ	TIMSK	= 0x39
                 .equ	TIFR	= 0x38
                 .equ	SPMCR	= 0x37
                 .equ	TWCR	= 0x36
                 .equ	MCUCR	= 0x35
                 .equ	MCUCSR	= 0x34
                 .equ	TCCR0	= 0x33
                 .equ	TCNT0	= 0x32
                 .equ	OSCCAL	= 0x31
                 .equ	OCDR	= 0x31
                 .equ	SFIOR	= 0x30
                 .equ	TCCR1A	= 0x2f
                 .equ	TCCR1B	= 0x2e
                 .equ	TCNT1L	= 0x2c
                 .equ	TCNT1H	= 0x2d
                 .equ	OCR1AL	= 0x2a
                 .equ	OCR1AH	= 0x2b
                 .equ	OCR1BL	= 0x28
                 .equ	OCR1BH	= 0x29
                 .equ	ICR1L	= 0x26
                 .equ	ICR1H	= 0x27
                 .equ	TCCR2	= 0x25
                 .equ	TCNT2	= 0x24
                 .equ	OCR2	= 0x23
                 .equ	ASSR	= 0x22
                 .equ	WDTCR	= 0x21
                 .equ	UBRRH	= 0x20
                 .equ	UCSRC	= 0x20
                 .equ	EEARL	= 0x1e
                 .equ	EEARH	= 0x1f
                 .equ	EEDR	= 0x1d
                 .equ	EECR	= 0x1c
                 .equ	PORTA	= 0x1b
                 .equ	DDRA	= 0x1a
                 .equ	PINA	= 0x19
                 .equ	PORTB	= 0x18
                 .equ	DDRB	= 0x17
                 .equ	PINB	= 0x16
                 .equ	PORTC	= 0x15
                 .equ	DDRC	= 0x14
                 .equ	PINC	= 0x13
                 .equ	PORTD	= 0x12
                 .equ	DDRD	= 0x11
                 .equ	PIND	= 0x10
                 .equ	SPDR	= 0x0f
                 .equ	SPSR	= 0x0e
                 .equ	SPCR	= 0x0d
                 .equ	UDR	= 0x0c
                 .equ	UCSRA	= 0x0b
                 .equ	UCSRB	= 0x0a
                 .equ	UBRRL	= 0x09
                 .equ	ACSR	= 0x08
                 .equ	ADMUX	= 0x07
                 .equ	ADCSRA	= 0x06
                 .equ	ADCH	= 0x05
                 .equ	ADCL	= 0x04
                 .equ	TWDR	= 0x03
                 .equ	TWAR	= 0x02
                 .equ	TWSR	= 0x01
                 .equ	TWBR	= 0x00
                 
                 
                 ; ***** BIT DEFINITIONS **************************************************
                 
                 ; ***** EEPROM ***********************
                 ; EEDR - EEPROM Data Register
                 .equ	EEDR0	= 0	; EEPROM Data Register bit 0
                 .equ	EEDR1	= 1	; EEPROM Data Register bit 1
                 .equ	EEDR2	= 2	; EEPROM Data Register bit 2
                 .equ	EEDR3	= 3	; EEPROM Data Register bit 3
                 .equ	EEDR4	= 4	; EEPROM Data Register bit 4
                 .equ	EEDR5	= 5	; EEPROM Data Register bit 5
                 .equ	EEDR6	= 6	; EEPROM Data Register bit 6
                 .equ	EEDR7	= 7	; EEPROM Data Register bit 7
                 
                 ; EECR - EEPROM Control Register
                 .equ	EERE	= 0	; EEPROM Read Enable
                 .equ	EEWE	= 1	; EEPROM Write Enable
                 .equ	EEMWE	= 2	; EEPROM Master Write Enable
                 .equ	EERIE	= 3	; EEPROM Ready Interrupt Enable
                 
                 
                 ; ***** WATCHDOG *********************
                 ; WDTCR - Watchdog Timer Control Register
                 .equ	WDP0	= 0	; Watch Dog Timer Prescaler bit 0
                 .equ	WDP1	= 1	; Watch Dog Timer Prescaler bit 1
                 .equ	WDP2	= 2	; Watch Dog Timer Prescaler bit 2
                 .equ	WDE	= 3	; Watch Dog Enable
                 .equ	WDTOE	= 4	; RW
                 .equ	WDDE	= WDTOE	; For compatibility
                 
                 
                 ; ***** EXTERNAL_INTERRUPT ***********
                 ; GICR - General Interrupt Control Register
                 .equ	GIMSK	= GICR	; For compatibility
                 .equ	IVCE	= 0	; Interrupt Vector Change Enable
                 .equ	IVSEL	= 1	; Interrupt Vector Select
                 .equ	INT2	= 5	; External Interrupt Request 2 Enable
                 .equ	INT0	= 6	; External Interrupt Request 0 Enable
                 .equ	INT1	= 7	; External Interrupt Request 1 Enable
                 
                 ; GIFR - General Interrupt Flag Register
                 .equ	INTF2	= 5	; External Interrupt Flag 2
                 .equ	INTF0	= 6	; External Interrupt Flag 0
                 .equ	INTF1	= 7	; External Interrupt Flag 1
                 
                 ; MCUCR - General Interrupt Control Register
                 .equ	ISC00	= 0	; Interrupt Sense Control 0 Bit 0
                 .equ	ISC01	= 1	; Interrupt Sense Control 0 Bit 1
                 .equ	ISC10	= 2	; Interrupt Sense Control 1 Bit 0
                 .equ	ISC11	= 3	; Interrupt Sense Control 1 Bit 1
                 
                 ; MCUCSR - MCU Control And Status Register
                 .equ	ISC2	= 6	; Interrupt Sense Control 2
                 
                 
                 ; ***** TIMER_COUNTER_0 **************
                 ; TCCR0 - Timer/Counter Control Register
                 .equ	CS00	= 0	; Clock Select 1
                 .equ	CS01	= 1	; Clock Select 1
                 .equ	CS02	= 2	; Clock Select 2
                 .equ	WGM01	= 3	; Waveform Generation Mode 1
                 .equ	CTC0	= WGM01	; For compatibility
                 .equ	COM00	= 4	; Compare match Output Mode 0
                 .equ	COM01	= 5	; Compare Match Output Mode 1
                 .equ	WGM00	= 6	; Waveform Generation Mode
                 .equ	PWM0	= WGM00	; For compatibility
                 .equ	FOC0	= 7	; Force Output Compare
                 
                 ; TCNT0 - Timer/Counter Register
                 .equ	TCNT0_0	= 0	; 
                 .equ	TCNT0_1	= 1	; 
                 .equ	TCNT0_2	= 2	; 
                 .equ	TCNT0_3	= 3	; 
                 .equ	TCNT0_4	= 4	; 
                 .equ	TCNT0_5	= 5	; 
                 .equ	TCNT0_6	= 6	; 
                 .equ	TCNT0_7	= 7	; 
                 
                 ; OCR0 - Output Compare Register
                 .equ	OCR0_0	= 0	; 
                 .equ	OCR0_1	= 1	; 
                 .equ	OCR0_2	= 2	; 
                 .equ	OCR0_3	= 3	; 
                 .equ	OCR0_4	= 4	; 
                 .equ	OCR0_5	= 5	; 
                 .equ	OCR0_6	= 6	; 
                 .equ	OCR0_7	= 7	; 
                 
                 ; TIMSK - Timer/Counter Interrupt Mask Register
                 .equ	TOIE0	= 0	; Timer/Counter0 Overflow Interrupt Enable
                 .equ	OCIE0	= 1	; Timer/Counter0 Output Compare Match Interrupt register
                 
                 ; TIFR - Timer/Counter Interrupt Flag register
                 .equ	TOV0	= 0	; Timer/Counter0 Overflow Flag
                 .equ	OCF0	= 1	; Output Compare Flag 0
                 
                 
                 ; ***** TIMER_COUNTER_2 **************
                 ; TIMSK - Timer/Counter Interrupt Mask register
                 .equ	TOIE2	= 6	; Timer/Counter2 Overflow Interrupt Enable
                 .equ	OCIE2	= 7	; Timer/Counter2 Output Compare Match Interrupt Enable
                 
                 ; TIFR - Timer/Counter Interrupt Flag Register
                 .equ	TOV2	= 6	; Timer/Counter2 Overflow Flag
                 .equ	OCF2	= 7	; Output Compare Flag 2
                 
                 ; TCCR2 - Timer/Counter2 Control Register
                 .equ	CS20	= 0	; Clock Select bit 0
                 .equ	CS21	= 1	; Clock Select bit 1
                 .equ	CS22	= 2	; Clock Select bit 2
                 .equ	WGM21	= 3	; Clear Timer/Counter2 on Compare Match
                 .equ	CTC2	= WGM21	; For compatibility
                 .equ	COM20	= 4	; Compare Output Mode bit 0
                 .equ	COM21	= 5	; Compare Output Mode bit 1
                 .equ	WGM20	= 6	; Pulse Width Modulator Enable
                 .equ	PWM2	= WGM20	; For compatibility
                 .equ	FOC2	= 7	; Force Output Compare
                 
                 ; TCNT2 - Timer/Counter2
                 .equ	TCNT2_0	= 0	; Timer/Counter 2 bit 0
                 .equ	TCNT2_1	= 1	; Timer/Counter 2 bit 1
                 .equ	TCNT2_2	= 2	; Timer/Counter 2 bit 2
                 .equ	TCNT2_3	= 3	; Timer/Counter 2 bit 3
                 .equ	TCNT2_4	= 4	; Timer/Counter 2 bit 4
                 .equ	TCNT2_5	= 5	; Timer/Counter 2 bit 5
                 .equ	TCNT2_6	= 6	; Timer/Counter 2 bit 6
                 .equ	TCNT2_7	= 7	; Timer/Counter 2 bit 7
                 
                 ; OCR2 - Timer/Counter2 Output Compare Register
                 .equ	OCR2_0	= 0	; Timer/Counter2 Output Compare Register Bit 0
                 .equ	OCR2_1	= 1	; Timer/Counter2 Output Compare Register Bit 1
                 .equ	OCR2_2	= 2	; Timer/Counter2 Output Compare Register Bit 2
                 .equ	OCR2_3	= 3	; Timer/Counter2 Output Compare Register Bit 3
                 .equ	OCR2_4	= 4	; Timer/Counter2 Output Compare Register Bit 4
                 .equ	OCR2_5	= 5	; Timer/Counter2 Output Compare Register Bit 5
                 .equ	OCR2_6	= 6	; Timer/Counter2 Output Compare Register Bit 6
                 .equ	OCR2_7	= 7	; Timer/Counter2 Output Compare Register Bit 7
                 
                 ; ASSR - Asynchronous Status Register
                 .equ	TCR2UB	= 0	; Timer/counter Control Register2 Update Busy
                 .equ	OCR2UB	= 1	; Output Compare Register2 Update Busy
                 .equ	TCN2UB	= 2	; Timer/Counter2 Update Busy
                 .equ	AS2	= 3	; Asynchronous Timer/counter2
                 
                 
                 ; ***** TIMER_COUNTER_1 **************
                 ; TIMSK - Timer/Counter Interrupt Mask Register
                 .equ	TOIE1	= 2	; Timer/Counter1 Overflow Interrupt Enable
                 .equ	OCIE1B	= 3	; Timer/Counter1 Output CompareB Match Interrupt Enable
                 .equ	OCIE1A	= 4	; Timer/Counter1 Output CompareA Match Interrupt Enable
                 .equ	TICIE1	= 5	; Timer/Counter1 Input Capture Interrupt Enable
                 
                 ; TIFR - Timer/Counter Interrupt Flag register
                 .equ	TOV1	= 2	; Timer/Counter1 Overflow Flag
                 .equ	OCF1B	= 3	; Output Compare Flag 1B
                 .equ	OCF1A	= 4	; Output Compare Flag 1A
                 .equ	ICF1	= 5	; Input Capture Flag 1
                 
                 ; TCCR1A - Timer/Counter1 Control Register A
                 .equ	WGM10	= 0	; Waveform Generation Mode
                 .equ	PWM10	= WGM10	; For compatibility
                 .equ	WGM11	= 1	; Waveform Generation Mode
                 .equ	PWM11	= WGM11	; For compatibility
                 .equ	FOC1B	= 2	; Force Output Compare 1B
                 .equ	FOC1A	= 3	; Force Output Compare 1A
                 .equ	COM1B0	= 4	; Compare Output Mode 1B, bit 0
                 .equ	COM1B1	= 5	; Compare Output Mode 1B, bit 1
                 .equ	COM1A0	= 6	; Compare Ouput Mode 1A, bit 0
                 .equ	COM1A1	= 7	; Compare Output Mode 1A, bit 1
                 
                 ; TCCR1B - Timer/Counter1 Control Register B
                 .equ	CS10	= 0	; Prescaler source of Timer/Counter 1
                 .equ	CS11	= 1	; Prescaler source of Timer/Counter 1
                 .equ	CS12	= 2	; Prescaler source of Timer/Counter 1
                 .equ	WGM12	= 3	; Waveform Generation Mode
                 .equ	CTC10	= WGM12	; For compatibility
                 .equ	CTC1	= WGM12	; For compatibility
                 .equ	WGM13	= 4	; Waveform Generation Mode
                 .equ	CTC11	= WGM13	; For compatibility
                 .equ	ICES1	= 6	; Input Capture 1 Edge Select
                 .equ	ICNC1	= 7	; Input Capture 1 Noise Canceler
                 
                 
                 ; ***** SPI **************************
                 ; SPDR - SPI Data Register
                 .equ	SPDR0	= 0	; SPI Data Register bit 0
                 .equ	SPDR1	= 1	; SPI Data Register bit 1
                 .equ	SPDR2	= 2	; SPI Data Register bit 2
                 .equ	SPDR3	= 3	; SPI Data Register bit 3
                 .equ	SPDR4	= 4	; SPI Data Register bit 4
                 .equ	SPDR5	= 5	; SPI Data Register bit 5
                 .equ	SPDR6	= 6	; SPI Data Register bit 6
                 .equ	SPDR7	= 7	; SPI Data Register bit 7
                 
                 ; SPSR - SPI Status Register
                 .equ	SPI2X	= 0	; Double SPI Speed Bit
                 .equ	WCOL	= 6	; Write Collision Flag
                 .equ	SPIF	= 7	; SPI Interrupt Flag
                 
                 ; SPCR - SPI Control Register
                 .equ	SPR0	= 0	; SPI Clock Rate Select 0
                 .equ	SPR1	= 1	; SPI Clock Rate Select 1
                 .equ	CPHA	= 2	; Clock Phase
                 .equ	CPOL	= 3	; Clock polarity
                 .equ	MSTR	= 4	; Master/Slave Select
                 .equ	DORD	= 5	; Data Order
                 .equ	SPE	= 6	; SPI Enable
                 .equ	SPIE	= 7	; SPI Interrupt Enable
                 
                 
                 ; ***** USART ************************
                 ; UDR - USART I/O Data Register
                 .equ	UDR0	= 0	; USART I/O Data Register bit 0
                 .equ	UDR1	= 1	; USART I/O Data Register bit 1
                 .equ	UDR2	= 2	; USART I/O Data Register bit 2
                 .equ	UDR3	= 3	; USART I/O Data Register bit 3
                 .equ	UDR4	= 4	; USART I/O Data Register bit 4
                 .equ	UDR5	= 5	; USART I/O Data Register bit 5
                 .equ	UDR6	= 6	; USART I/O Data Register bit 6
                 .equ	UDR7	= 7	; USART I/O Data Register bit 7
                 
                 ; UCSRA - USART Control and Status Register A
                 .equ	USR	= UCSRA	; For compatibility
                 .equ	MPCM	= 0	; Multi-processor Communication Mode
                 .equ	U2X	= 1	; Double the USART transmission speed
                 .equ	UPE	= 2	; Parity Error
                 .equ	PE	= UPE	; For compatibility
                 .equ	DOR	= 3	; Data overRun
                 .equ	FE	= 4	; Framing Error
                 .equ	UDRE	= 5	; USART Data Register Empty
                 .equ	TXC	= 6	; USART Transmitt Complete
                 .equ	RXC	= 7	; USART Receive Complete
                 
                 ; UCSRB - USART Control and Status Register B
                 .equ	UCR	= UCSRB	; For compatibility
                 .equ	TXB8	= 0	; Transmit Data Bit 8
                 .equ	RXB8	= 1	; Receive Data Bit 8
                 .equ	UCSZ2	= 2	; Character Size
                 .equ	CHR9	= UCSZ2	; For compatibility
                 .equ	TXEN	= 3	; Transmitter Enable
                 .equ	RXEN	= 4	; Receiver Enable
                 .equ	UDRIE	= 5	; USART Data register Empty Interrupt Enable
                 .equ	TXCIE	= 6	; TX Complete Interrupt Enable
                 .equ	RXCIE	= 7	; RX Complete Interrupt Enable
                 
                 ; UCSRC - USART Control and Status Register C
                 .equ	UCPOL	= 0	; Clock Polarity
                 .equ	UCSZ0	= 1	; Character Size
                 .equ	UCSZ1	= 2	; Character Size
                 .equ	USBS	= 3	; Stop Bit Select
                 .equ	UPM0	= 4	; Parity Mode Bit 0
                 .equ	UPM1	= 5	; Parity Mode Bit 1
                 .equ	UMSEL	= 6	; USART Mode Select
                 .equ	URSEL	= 7	; Register Select
                 
                 .equ	UBRRHI	= UBRRH	; For compatibility
                 
                 ; ***** ANALOG_COMPARATOR ************
                 ; SFIOR - Special Function IO Register
                 .equ	ACME	= 3	; Analog Comparator Multiplexer Enable
                 
                 ; ACSR - Analog Comparator Control And Status Register
                 .equ	ACIS0	= 0	; Analog Comparator Interrupt Mode Select bit 0
                 .equ	ACIS1	= 1	; Analog Comparator Interrupt Mode Select bit 1
                 .equ	ACIC	= 2	; Analog Comparator Input Capture Enable
                 .equ	ACIE	= 3	; Analog Comparator Interrupt Enable
                 .equ	ACI	= 4	; Analog Comparator Interrupt Flag
                 .equ	ACO	= 5	; Analog Compare Output
                 .equ	ACBG	= 6	; Analog Comparator Bandgap Select
                 .equ	ACD	= 7	; Analog Comparator Disable
                 
                 
                 ; ***** AD_CONVERTER *****************
                 ; ADMUX - The ADC multiplexer Selection Register
                 .equ	MUX0	= 0	; Analog Channel and Gain Selection Bits
                 .equ	MUX1	= 1	; Analog Channel and Gain Selection Bits
                 .equ	MUX2	= 2	; Analog Channel and Gain Selection Bits
                 .equ	MUX3	= 3	; Analog Channel and Gain Selection Bits
                 .equ	MUX4	= 4	; Analog Channel and Gain Selection Bits
                 .equ	ADLAR	= 5	; Left Adjust Result
                 .equ	REFS0	= 6	; Reference Selection Bit 0
                 .equ	REFS1	= 7	; Reference Selection Bit 1
                 
                 ; ADCSRA - The ADC Control and Status register
                 .equ	ADCSR	= ADCSRA	; For compatibility
                 .equ	ADPS0	= 0	; ADC  Prescaler Select Bits
                 .equ	ADPS1	= 1	; ADC  Prescaler Select Bits
                 .equ	ADPS2	= 2	; ADC  Prescaler Select Bits
                 .equ	ADIE	= 3	; ADC Interrupt Enable
                 .equ	ADIF	= 4	; ADC Interrupt Flag
                 .equ	ADATE	= 5	; When this bit is written to one,the Timer/Counter2 prescaler will be reset.The bit will be cleared by hardware after the operation is performed.Writing a zero to this bit will have no effect.This bit will always be read as zero if Timer/C                 ounter2 is clocked by the internal CPU clock.If this bit is written when Timer/Counter2 is operating in asynchronous mode,the bit will remain one until the prescaler has been reset.
                 .equ	ADFR	= ADATE	; For compatibility
                 .equ	ADSC	= 6	; ADC Start Conversion
                 .equ	ADEN	= 7	; ADC Enable
                 
                 ; ADCH - ADC Data Register High Byte
                 .equ	ADCH0	= 0	; ADC Data Register High Byte Bit 0
                 .equ	ADCH1	= 1	; ADC Data Register High Byte Bit 1
                 .equ	ADCH2	= 2	; ADC Data Register High Byte Bit 2
                 .equ	ADCH3	= 3	; ADC Data Register High Byte Bit 3
                 .equ	ADCH4	= 4	; ADC Data Register High Byte Bit 4
                 .equ	ADCH5	= 5	; ADC Data Register High Byte Bit 5
                 .equ	ADCH6	= 6	; ADC Data Register High Byte Bit 6
                 .equ	ADCH7	= 7	; ADC Data Register High Byte Bit 7
                 
                 ; ADCL - ADC Data Register Low Byte
                 .equ	ADCL0	= 0	; ADC Data Register Low Byte Bit 0
                 .equ	ADCL1	= 1	; ADC Data Register Low Byte Bit 1
                 .equ	ADCL2	= 2	; ADC Data Register Low Byte Bit 2
                 .equ	ADCL3	= 3	; ADC Data Register Low Byte Bit 3
                 .equ	ADCL4	= 4	; ADC Data Register Low Byte Bit 4
                 .equ	ADCL5	= 5	; ADC Data Register Low Byte Bit 5
                 .equ	ADCL6	= 6	; ADC Data Register Low Byte Bit 6
                 .equ	ADCL7	= 7	; ADC Data Register Low Byte Bit 7
                 
                 ; SFIOR - Special Function IO Register
                 .equ	ADTS0	= 5	; ADC Auto Trigger Source 0
                 .equ	ADTS1	= 6	; ADC Auto Trigger Source 1
                 .equ	ADTS2	= 7	; ADC Auto Trigger Source 2
                 
                 
                 ; ***** PORTA ************************
                 ; PORTA - Port A Data Register
                 .equ	PORTA0	= 0	; Port A Data Register bit 0
                 .equ	PA0	= 0	; For compatibility
                 .equ	PORTA1	= 1	; Port A Data Register bit 1
                 .equ	PA1	= 1	; For compatibility
                 .equ	PORTA2	= 2	; Port A Data Register bit 2
                 .equ	PA2	= 2	; For compatibility
                 .equ	PORTA3	= 3	; Port A Data Register bit 3
                 .equ	PA3	= 3	; For compatibility
                 .equ	PORTA4	= 4	; Port A Data Register bit 4
                 .equ	PA4	= 4	; For compatibility
                 .equ	PORTA5	= 5	; Port A Data Register bit 5
                 .equ	PA5	= 5	; For compatibility
                 .equ	PORTA6	= 6	; Port A Data Register bit 6
                 .equ	PA6	= 6	; For compatibility
                 .equ	PORTA7	= 7	; Port A Data Register bit 7
                 .equ	PA7	= 7	; For compatibility
                 
                 ; DDRA - Port A Data Direction Register
                 .equ	DDA0	= 0	; Data Direction Register, Port A, bit 0
                 .equ	DDA1	= 1	; Data Direction Register, Port A, bit 1
                 .equ	DDA2	= 2	; Data Direction Register, Port A, bit 2
                 .equ	DDA3	= 3	; Data Direction Register, Port A, bit 3
                 .equ	DDA4	= 4	; Data Direction Register, Port A, bit 4
                 .equ	DDA5	= 5	; Data Direction Register, Port A, bit 5
                 .equ	DDA6	= 6	; Data Direction Register, Port A, bit 6
                 .equ	DDA7	= 7	; Data Direction Register, Port A, bit 7
                 
                 ; PINA - Port A Input Pins
                 .equ	PINA0	= 0	; Input Pins, Port A bit 0
                 .equ	PINA1	= 1	; Input Pins, Port A bit 1
                 .equ	PINA2	= 2	; Input Pins, Port A bit 2
                 .equ	PINA3	= 3	; Input Pins, Port A bit 3
                 .equ	PINA4	= 4	; Input Pins, Port A bit 4
                 .equ	PINA5	= 5	; Input Pins, Port A bit 5
                 .equ	PINA6	= 6	; Input Pins, Port A bit 6
                 .equ	PINA7	= 7	; Input Pins, Port A bit 7
                 
                 
                 ; ***** PORTB ************************
                 ; PORTB - Port B Data Register
                 .equ	PORTB0	= 0	; Port B Data Register bit 0
                 .equ	PB0	= 0	; For compatibility
                 .equ	PORTB1	= 1	; Port B Data Register bit 1
                 .equ	PB1	= 1	; For compatibility
                 .equ	PORTB2	= 2	; Port B Data Register bit 2
                 .equ	PB2	= 2	; For compatibility
                 .equ	PORTB3	= 3	; Port B Data Register bit 3
                 .equ	PB3	= 3	; For compatibility
                 .equ	PORTB4	= 4	; Port B Data Register bit 4
                 .equ	PB4	= 4	; For compatibility
                 .equ	PORTB5	= 5	; Port B Data Register bit 5
                 .equ	PB5	= 5	; For compatibility
                 .equ	PORTB6	= 6	; Port B Data Register bit 6
                 .equ	PB6	= 6	; For compatibility
                 .equ	PORTB7	= 7	; Port B Data Register bit 7
                 .equ	PB7	= 7	; For compatibility
                 
                 ; DDRB - Port B Data Direction Register
                 .equ	DDB0	= 0	; Port B Data Direction Register bit 0
                 .equ	DDB1	= 1	; Port B Data Direction Register bit 1
                 .equ	DDB2	= 2	; Port B Data Direction Register bit 2
                 .equ	DDB3	= 3	; Port B Data Direction Register bit 3
                 .equ	DDB4	= 4	; Port B Data Direction Register bit 4
                 .equ	DDB5	= 5	; Port B Data Direction Register bit 5
                 .equ	DDB6	= 6	; Port B Data Direction Register bit 6
                 .equ	DDB7	= 7	; Port B Data Direction Register bit 7
                 
                 ; PINB - Port B Input Pins
                 .equ	PINB0	= 0	; Port B Input Pins bit 0
                 .equ	PINB1	= 1	; Port B Input Pins bit 1
                 .equ	PINB2	= 2	; Port B Input Pins bit 2
                 .equ	PINB3	= 3	; Port B Input Pins bit 3
                 .equ	PINB4	= 4	; Port B Input Pins bit 4
                 .equ	PINB5	= 5	; Port B Input Pins bit 5
                 .equ	PINB6	= 6	; Port B Input Pins bit 6
                 .equ	PINB7	= 7	; Port B Input Pins bit 7
                 
                 
                 ; ***** PORTC ************************
                 ; PORTC - Port C Data Register
                 .equ	PORTC0	= 0	; Port C Data Register bit 0
                 .equ	PC0	= 0	; For compatibility
                 .equ	PORTC1	= 1	; Port C Data Register bit 1
                 .equ	PC1	= 1	; For compatibility
                 .equ	PORTC2	= 2	; Port C Data Register bit 2
                 .equ	PC2	= 2	; For compatibility
                 .equ	PORTC3	= 3	; Port C Data Register bit 3
                 .equ	PC3	= 3	; For compatibility
                 .equ	PORTC4	= 4	; Port C Data Register bit 4
                 .equ	PC4	= 4	; For compatibility
                 .equ	PORTC5	= 5	; Port C Data Register bit 5
                 .equ	PC5	= 5	; For compatibility
                 .equ	PORTC6	= 6	; Port C Data Register bit 6
                 .equ	PC6	= 6	; For compatibility
                 .equ	PORTC7	= 7	; Port C Data Register bit 7
                 .equ	PC7	= 7	; For compatibility
                 
                 ; DDRC - Port C Data Direction Register
                 .equ	DDC0	= 0	; Port C Data Direction Register bit 0
                 .equ	DDC1	= 1	; Port C Data Direction Register bit 1
                 .equ	DDC2	= 2	; Port C Data Direction Register bit 2
                 .equ	DDC3	= 3	; Port C Data Direction Register bit 3
                 .equ	DDC4	= 4	; Port C Data Direction Register bit 4
                 .equ	DDC5	= 5	; Port C Data Direction Register bit 5
                 .equ	DDC6	= 6	; Port C Data Direction Register bit 6
                 .equ	DDC7	= 7	; Port C Data Direction Register bit 7
                 
                 ; PINC - Port C Input Pins
                 .equ	PINC0	= 0	; Port C Input Pins bit 0
                 .equ	PINC1	= 1	; Port C Input Pins bit 1
                 .equ	PINC2	= 2	; Port C Input Pins bit 2
                 .equ	PINC3	= 3	; Port C Input Pins bit 3
                 .equ	PINC4	= 4	; Port C Input Pins bit 4
                 .equ	PINC5	= 5	; Port C Input Pins bit 5
                 .equ	PINC6	= 6	; Port C Input Pins bit 6
                 .equ	PINC7	= 7	; Port C Input Pins bit 7
                 
                 
                 ; ***** PORTD ************************
                 ; PORTD - Port D Data Register
                 .equ	PORTD0	= 0	; Port D Data Register bit 0
                 .equ	PD0	= 0	; For compatibility
                 .equ	PORTD1	= 1	; Port D Data Register bit 1
                 .equ	PD1	= 1	; For compatibility
                 .equ	PORTD2	= 2	; Port D Data Register bit 2
                 .equ	PD2	= 2	; For compatibility
                 .equ	PORTD3	= 3	; Port D Data Register bit 3
                 .equ	PD3	= 3	; For compatibility
                 .equ	PORTD4	= 4	; Port D Data Register bit 4
                 .equ	PD4	= 4	; For compatibility
                 .equ	PORTD5	= 5	; Port D Data Register bit 5
                 .equ	PD5	= 5	; For compatibility
                 .equ	PORTD6	= 6	; Port D Data Register bit 6
                 .equ	PD6	= 6	; For compatibility
                 .equ	PORTD7	= 7	; Port D Data Register bit 7
                 .equ	PD7	= 7	; For compatibility
                 
                 ; DDRD - Port D Data Direction Register
                 .equ	DDD0	= 0	; Port D Data Direction Register bit 0
                 .equ	DDD1	= 1	; Port D Data Direction Register bit 1
                 .equ	DDD2	= 2	; Port D Data Direction Register bit 2
                 .equ	DDD3	= 3	; Port D Data Direction Register bit 3
                 .equ	DDD4	= 4	; Port D Data Direction Register bit 4
                 .equ	DDD5	= 5	; Port D Data Direction Register bit 5
                 .equ	DDD6	= 6	; Port D Data Direction Register bit 6
                 .equ	DDD7	= 7	; Port D Data Direction Register bit 7
                 
                 ; PIND - Port D Input Pins
                 .equ	PIND0	= 0	; Port D Input Pins bit 0
                 .equ	PIND1	= 1	; Port D Input Pins bit 1
                 .equ	PIND2	= 2	; Port D Input Pins bit 2
                 .equ	PIND3	= 3	; Port D Input Pins bit 3
                 .equ	PIND4	= 4	; Port D Input Pins bit 4
                 .equ	PIND5	= 5	; Port D Input Pins bit 5
                 .equ	PIND6	= 6	; Port D Input Pins bit 6
                 .equ	PIND7	= 7	; Port D Input Pins bit 7
                 
                 
                 ; ***** CPU **************************
                 ; SREG - Status Register
                 .equ	SREG_C	= 0	; Carry Flag
                 .equ	SREG_Z	= 1	; Zero Flag
                 .equ	SREG_N	= 2	; Negative Flag
                 .equ	SREG_V	= 3	; Two's Complement Overflow Flag
                 .equ	SREG_S	= 4	; Sign Bit
                 .equ	SREG_H	= 5	; Half Carry Flag
                 .equ	SREG_T	= 6	; Bit Copy Storage
                 .equ	SREG_I	= 7	; Global Interrupt Enable
                 
                 ; MCUCR - MCU Control Register
                 ;.equ	ISC00	= 0	; Interrupt Sense Control 0 Bit 0
                 ;.equ	ISC01	= 1	; Interrupt Sense Control 0 Bit 1
                 ;.equ	ISC10	= 2	; Interrupt Sense Control 1 Bit 0
                 ;.equ	ISC11	= 3	; Interrupt Sense Control 1 Bit 1
                 .equ	SM0	= 4	; Sleep Mode Select
                 .equ	SM1	= 5	; Sleep Mode Select
                 .equ	SM2	= 6	; Sleep Mode Select
                 .equ	SE	= 7	; Sleep Enable
                 
                 ; MCUCSR - MCU Control And Status Register
                 .equ	MCUSR	= MCUCSR	; For compatibility
                 .equ	PORF	= 0	; Power-on reset flag
                 .equ	EXTRF	= 1	; External Reset Flag
                 .equ	BORF	= 2	; Brown-out Reset Flag
                 .equ	WDRF	= 3	; Watchdog Reset Flag
                 .equ	JTRF	= 4	; JTAG Reset Flag
                 .equ	JTD	= 7	; JTAG Interface Disable
                 
                 ; OSCCAL - Oscillator Calibration Value
                 .equ	CAL0	= 0	; Oscillator Calibration Value Bit0
                 .equ	CAL1	= 1	; Oscillator Calibration Value Bit1
                 .equ	CAL2	= 2	; Oscillator Calibration Value Bit2
                 .equ	CAL3	= 3	; Oscillator Calibration Value Bit3
                 .equ	CAL4	= 4	; Oscillator Calibration Value Bit4
                 .equ	CAL5	= 5	; Oscillator Calibration Value Bit5
                 .equ	CAL6	= 6	; Oscillator Calibration Value Bit6
                 .equ	CAL7	= 7	; Oscillator Calibration Value Bit7
                 
                 ; SFIOR - Special Function IO Register
                 .equ	PSR10	= 0	; Prescaler Reset Timer/Counter1&0
                 .equ	PSR2	= 1	; Prescaler Reset Timer/Counter2
                 .equ	PUD	= 2	; Pull-up Disable
                 
                 
                 ; ***** BOOT_LOAD ********************
                 ; SPMCR - Store Program Memory Control Register
                 .equ	SPMEN	= 0	; Store Program Memory Enable
                 .equ	PGERS	= 1	; Page Erase
                 .equ	PGWRT	= 2	; Page Write
                 .equ	BLBSET	= 3	; Boot Lock Bit Set
                 .equ	RWWSRE	= 4	; Read While Write secion read enable
                 .equ	ASRE	= RWWSRE	; For compatibility
                 .equ	RWWSB	= 6	; Read While Write Section Busy
                 .equ	ASB	= RWWSB	; For compatibility
                 .equ	SPMIE	= 7	; SPM Interrupt Enable
                 
                 
                 ; ***** TWI **************************
                 ; TWBR - TWI Bit Rate register
                 .equ	TWBR0	= 0	; 
                 .equ	TWBR1	= 1	; 
                 .equ	TWBR2	= 2	; 
                 .equ	TWBR3	= 3	; 
                 .equ	TWBR4	= 4	; 
                 .equ	TWBR5	= 5	; 
                 .equ	TWBR6	= 6	; 
                 .equ	TWBR7	= 7	; 
                 
                 ; TWCR - TWI Control Register
                 .equ	TWIE	= 0	; TWI Interrupt Enable
                 .equ	TWEN	= 2	; TWI Enable Bit
                 .equ	TWWC	= 3	; TWI Write Collition Flag
                 .equ	TWSTO	= 4	; TWI Stop Condition Bit
                 .equ	TWSTA	= 5	; TWI Start Condition Bit
                 .equ	TWEA	= 6	; TWI Enable Acknowledge Bit
                 .equ	TWINT	= 7	; TWI Interrupt Flag
                 
                 ; TWSR - TWI Status Register
                 .equ	TWPS0	= 0	; TWI Prescaler bits
                 .equ	TWPS1	= 1	; TWI Prescaler bits
                 .equ	TWS3	= 3	; TWI Status
                 .equ	TWS4	= 4	; TWI Status
                 .equ	TWS5	= 5	; TWI Status
                 .equ	TWS6	= 6	; TWI Status
                 .equ	TWS7	= 7	; TWI Status
                 
                 ; TWDR - TWI Data register
                 .equ	TWD0	= 0	; TWI Data Register Bit 0
                 .equ	TWD1	= 1	; TWI Data Register Bit 1
                 .equ	TWD2	= 2	; TWI Data Register Bit 2
                 .equ	TWD3	= 3	; TWI Data Register Bit 3
                 .equ	TWD4	= 4	; TWI Data Register Bit 4
                 .equ	TWD5	= 5	; TWI Data Register Bit 5
                 .equ	TWD6	= 6	; TWI Data Register Bit 6
                 .equ	TWD7	= 7	; TWI Data Register Bit 7
                 
                 ; TWAR - TWI (Slave) Address register
                 .equ	TWGCE	= 0	; TWI General Call Recognition Enable Bit
                 .equ	TWA0	= 1	; TWI (Slave) Address register Bit 0
                 .equ	TWA1	= 2	; TWI (Slave) Address register Bit 1
                 .equ	TWA2	= 3	; TWI (Slave) Address register Bit 2
                 .equ	TWA3	= 4	; TWI (Slave) Address register Bit 3
                 .equ	TWA4	= 5	; TWI (Slave) Address register Bit 4
                 .equ	TWA5	= 6	; TWI (Slave) Address register Bit 5
                 .equ	TWA6	= 7	; TWI (Slave) Address register Bit 6
                 
                 
                 
                 ; ***** LOCKSBITS ********************************************************
                 .equ	LB1	= 0	; Lock bit
                 .equ	LB2	= 1	; Lock bit
                 .equ	BLB01	= 2	; Boot Lock bit
                 .equ	BLB02	= 3	; Boot Lock bit
                 .equ	BLB11	= 4	; Boot lock bit
                 .equ	BLB12	= 5	; Boot lock bit
                 
                 
                 ; ***** FUSES ************************************************************
                 ; LOW fuse bits
                 .equ	CKSEL0	= 0	; Select Clock Source
                 .equ	CKSEL1	= 1	; Select Clock Source
                 .equ	CKSEL2	= 2	; Select Clock Source
                 .equ	CKSEL3	= 3	; Select Clock Source
                 .equ	BODEN	= 6	; Brown out detector enable
                 .equ	BODLEVEL	= 7	; Brown out detector trigger level
                 
                 ; HIGH fuse bits
                 .equ	BOOTRST	= 0	; Select Reset Vector
                 .equ	BOOTSZ0	= 1	; Select Boot Size
                 .equ	BOOTSZ1	= 2	; Select Boot Size
                 .equ	EESAVE	= 3	; EEPROM memory is preserved through chip erase
                 .equ	SPIEN	= 5	; Enable Serial programming and Data Downloading
                 .equ	JTAGEN	= 6	; Enable JTAG
                 .equ	OCDEN	= 7	; Enable OCD
                 
                 
                 
                 ; ***** CPU REGISTER DEFINITIONS *****************************************
                 .def	XH	= r27
                 .def	XL	= r26
                 .def	YH	= r29
                 .def	YL	= r28
                 .def	ZH	= r31
                 .def	ZL	= r30
                 
                 
                 
                 ; ***** DATA MEMORY DECLARATIONS *****************************************
                 .equ	FLASHEND	= 0x3fff	; Note: Word address
                 .equ	IOEND	= 0x003f
                 .equ	SRAM_START	= 0x0060
                 .equ	SRAM_SIZE	= 2048
                 .equ	RAMEND	= 0x085f
                 .equ	XRAMEND	= 0x0000
                 .equ	E2END	= 0x03ff
                 .equ	EEPROMEND	= 0x03ff
                 .equ	EEADRBITS	= 10
                 #pragma AVRPART MEMORY PROG_FLASH 32768
                 #pragma AVRPART MEMORY EEPROM 1024
                 #pragma AVRPART MEMORY INT_SRAM SIZE 2048
                 #pragma AVRPART MEMORY INT_SRAM START_ADDR 0x60
                 
                 
                 
                 ; ***** BOOTLOADER DECLARATIONS ******************************************
                 .equ	NRWW_START_ADDR	= 0x3800
                 .equ	NRWW_STOP_ADDR	= 0x3fff
                 .equ	RWW_START_ADDR	= 0x0
                 .equ	RWW_STOP_ADDR	= 0x37ff
                 .equ	PAGESIZE	= 64
                 .equ	FIRSTBOOTSTART	= 0x3f00
                 .equ	SECONDBOOTSTART	= 0x3e00
                 .equ	THIRDBOOTSTART	= 0x3c00
                 .equ	FOURTHBOOTSTART	= 0x3800
                 .equ	SMALLBOOTSTART	= FIRSTBOOTSTART
                 .equ	LARGEBOOTSTART	= FOURTHBOOTSTART
                 
                 
                 
                 ; ***** INTERRUPT VECTORS ************************************************
                 .equ	INT0addr	= 0x0002	; External Interrupt Request 0
                 .equ	INT1addr	= 0x0004	; External Interrupt Request 1
                 .equ	INT2addr	= 0x0006	; External Interrupt Request 2
                 .equ	OC2addr	= 0x0008	; Timer/Counter2 Compare Match
                 .equ	OVF2addr	= 0x000a	; Timer/Counter2 Overflow
                 .equ	ICP1addr	= 0x000c	; Timer/Counter1 Capture Event
                 .equ	OC1Aaddr	= 0x000e	; Timer/Counter1 Compare Match A
                 .equ	OC1Baddr	= 0x0010	; Timer/Counter1 Compare Match B
                 .equ	OVF1addr	= 0x0012	; Timer/Counter1 Overflow
                 .equ	OC0addr	= 0x0014	; Timer/Counter0 Compare Match
                 .equ	OVF0addr	= 0x0016	; Timer/Counter0 Overflow
                 .equ	SPIaddr	= 0x0018	; Serial Transfer Complete
                 .equ	URXCaddr	= 0x001a	; USART, Rx Complete
                 .equ	UDREaddr	= 0x001c	; USART Data Register Empty
                 .equ	UTXCaddr	= 0x001e	; USART, Tx Complete
                 .equ	ADCCaddr	= 0x0020	; ADC Conversion Complete
                 .equ	ERDYaddr	= 0x0022	; EEPROM Ready
                 .equ	ACIaddr	= 0x0024	; Analog Comparator
                 .equ	TWIaddr	= 0x0026	; 2-wire Serial Interface
                 .equ	SPMRaddr	= 0x0028	; Store Program Memory Ready
                 
                 .equ	INT_VECTORS_SIZE	= 42	; size in words
                 
                 #endif  /* _M32DEF_INC_ */
                 
                 
                 /*
                  * PruebaJuegoDesbloqueo.asm
                  *
                  *  Created: 15/07/2019 15:02:09
                  *   Author: Alvaro Ivan Arcia Gonzalez
                  */
                 
                 
                  .CSEG
                 .ORG $0000
                 
                 ;.include "libreria_tablas.inc"
                 ;.include "libreria_subrutinas.inc"
                 
                 .def regUsoGeneral = r16
                 .def regVecesPulsado = r29
                 .def regDesbloqueo = r19
                 .def regAdchVertical = r17
                 .def regAdchHorizontal = r24
                 .def regFila = r31
                 
                 
                 ; Inicio del código
                 
                 start:
                 
                 	; Creación de la pila
                 
000000 e008      	ldi regUsoGeneral,high(RAMEND)
000001 bf0e      	out SPH, regUsoGeneral		
000002 e50f      	ldi regUsoGeneral, low(RAMEND)     
000003 bf0d      	out SPL, regUsoGeneral
                 		
                 	; Establecemos como entrada los pines 0 y 1 del Puerto A
                 	; El resto de pines serán de salida.
                 	
000004 e70c      	ldi regUsoGeneral, 0b01111100  
000005 bb0a      	out DDRA, regUsoGeneral
                 			
                 	; Establecemos como salida los pines del puerto B
                 	; Refinarlo	
                 	
000006 ef0f      	ldi regUsoGeneral,255	
000007 bb07      	out DDRB, regUsoGeneral
                 
                 	; Establecemos como salida los pines del puerto C
                 	; a través de estos pines le enviaremos información a la pantalla
                 
000008 ef0f      	ldi regUsoGeneral,255	
000009 bb04      	out DDRC, regUsoGeneral
                 	
                 	; Establecemos como salida los pines del puerto D	
                 
00000a ef0f      	ldi regUsoGeneral,255	
00000b bb01      	out DDRD, regUsoGeneral
                 
                 	; Cargamos la dirección del puntero con la tabla Blanco ya que 
                 	; limpiaremos la pantalla al iniciar el código
                 
00000c e0fe      	ldi ZH,HIGH(Blanco*2)
00000d ede0      	ldi ZL,LOW(Blanco*2)
                 
                 	; Inicializamos los registros encargados de la comprobación del pin
                 	; y la comprobación de la cantidad de veces pulsada
                 
00000e e0d0      	ldi regVecesPulsado, 0 
00000f e030      	ldi regDesbloqueo,0
                 
                 
                 programa:
                 	; Iniciamos la configuración de la pantalla para empezar a trabar con ella	
                 
000010 9a97      	sbi PORTD,7
000011 e30f      	ldi regUsoGeneral, 0b00111111
000012 bb05      	out PORTC, regUsoGeneral
                 
                 
000013 d119      	rcall SRPantallaIzquierdaOn
000014 d11e      	rcall SRModoConfig
000015 d11a      	rcall SRPantallaDerechaOn
000016 d11c      	rcall SRModoConfig
                 
000017 98c0      	cbi PORTB,0
000018 98c1      	cbi PORTB,1
                 
                 
                 	; A través del modo configuración establecemos que comenzaremos a 
                 	; dibujar la pantalla en el pixel 1 del eje horizontal
                 
000019 e400      	ldi regUsoGeneral,0b01000000
00001a bb05      	out PORTC, regUsoGeneral
00001b d117      	rcall SRModoConfig
                 
                 	; A través del modo configuración establecemos que comenzaremos a 
                 	; dibujar la pantalla en el pixel 1 del eje vertical
                 
00001c eb08      	ldi regUsoGeneral,0b10111000
00001d bb05      	out PORTC, regUsoGeneral
00001e d114      	rcall SRModoConfig
                 
                 
                 	;Imprimimos por pantalla el logo de la ULL
                 	
00001f e3f6      	ldi ZH,HIGH(ULL*2)     ;El puntero tendrá la dirección de la tabla para el menú 
000020 ede0      	ldi ZL,LOW(ULL*2)
000021 d0d6      	rcall SRPintar
000022 d130      	rcall RetardoLargo
                 
                 inicio:
                 	; Limpiamos la pantalla
                 
000023 d0c8      	rcall SRLimpiar
                 
                 	; Dibujamos los números
                 
000024 d0c3      	rcall SRNumeros
                 	
                 	
                 bucle:
                 	; Configuramos admux para que nos lea el pin 3 del puerto A
                 ;;;;;;;;;;;;;;;;;;;;;;;;;;;;;;;;;;;;;;;;;;;;;;;;;;;;;;;;;;;;;;;;;;;;;;	Continuar escribiendo
                 
000025 e401      	ldi regUsoGeneral,0b01000001
000026 b907      	out admux,regUsoGeneral
000027 98da      	cbi PORTA,2
000028 9adb      	sbi PORTA,3
000029 e800      	ldi regUsoGeneral, 0b10000000
00002a b906      	out adcsra, regUsoGeneral
00002b c014      	rjmp bucleConfig
                 		
                 bucleComprobacionVertical:
                 	
                 	; Creamos un bucle que compruebe constantemente el pin 4 del
                 	; convertidor adcsra ya que este se activa cuando acaba la conversión
                 
00002c 9b34      	sbis adcsra,4
00002d cffe      	rjmp bucleComprobacionVertical
00002e d131      	rcall Retardo4ms
                 
                 	; Introducimos los valores de la conversión en los registros
                 
00002f b104      	in regUsoGeneral, adcl
000030 b115      	in regAdchVertical, adch
                 
                 	; Guardamos el valor del adcl en el r18 para más tarde verificar que
                 	; la medida ha sido correcta
000031 2f20      	mov r18,regUsoGeneral
                 
                 	; Volvemos a realizar la medición y su bucle
                 
000032 9a36      	sbi adcsra,6
                 
                 bucleComprobacionVertical2:
000033 9b34      	sbis adcsra,4
000034 cffe      	rjmp bucleComprobacionVertical2
000035 b104      	in regUsoGeneral, adcl
000036 b115      	in regAdchVertical, adch	
                 
                 	; Comparamos la medida anterior con la nueva, si no coincide
                 	; comenzamos de nuevo el proceso
                 
000037 1702      	cp regUsoGeneral,r18
000038 f439      	brne bucleConfig
                 
                 	; Realizamos un primer filtro a través de los valores de adch
                 
000039 3011      	cpi regAdchVertical,1
00003a f079      	breq posibleFila23
00003b 3012      	cpi regAdchVertical,2
00003c f081      	breq posibleFila12
00003d 3013      	cpi regAdchVertical,3
00003e f089      	breq primeraFila	
00003f c007      	rjmp posibleFila3
                 
                 ; Bucle intermedio para reiniciar la medida
                 
                 bucleConfig:
                 
000040 e401      	ldi regUsoGeneral,0b01000001
000041 b907      	out admux,regUsoGeneral
000042 2711      	clr regAdchVertical
000043 98da      	cbi PORTA,2
000044 9adb      	sbi PORTA,3
000045 9a36      	sbi adcsra,6
000046 cfe5      	rjmp bucleComprobacionVertical
                 	
                 ; Una vez comparado el valor de adch compararemos el valor de
                 ; adcl para saber qué fila ha sido presionada y proceder a leer
                 ; el eje vertical de la pulsación
                 
                 posibleFila3:
000047 380f      	cpi regUsoGeneral, 143
000048 f3b8      	brlo bucleConfig
000049 c00a      	rjmp terceraFila
                 
                 posibleFila23:
                 
00004a 3702      	cpi regUsoGeneral,114
00004b f040      	brlo terceraFila 
00004c c005      	rjmp segundaFila
                 
                 posibleFila12:
                 
00004d 3504      	cpi regUsoGeneral, 84 
00004e f018      	brlo segundaFila
00004f c000      	rjmp primeraFila
                 
                 ; Asignamos el valor correspondiente a cada fila al registro 
                 ; encargado 
                 	
                 primeraFila:
000050 e0f1      	ldi regFila,1
000051 c004      	rjmp bucleHorizontal
                 
                 segundaFila:
000052 e0f2      	ldi regFila,2
000053 c002      	rjmp bucleHorizontal
                 
                 terceraFila:
000054 e0f3      	ldi regFila,3
000055 c000      	rjmp bucleHorizontal
                 
                 ;Leemos el eje horizontal de la pulsación a través del mismo proceso
                 ; anteriormente hecho
                 
                 bucleHorizontal:	
                 
000056 e400      	ldi regUsoGeneral,0b01000000
000057 b907      	out admux,regUsoGeneral
                 
000058 9ada      	sbi PORTA,2
000059 98db      	cbi PORTA,3
00005a d105      	rcall Retardo4ms
                 
00005b 9a36      	sbi adcsra,6
                 
                 bucleComprobacionHorizontal:
                 
00005c 9b34      	sbis adcsra,4
00005d cffe      	rjmp bucleComprobacionHorizontal
00005e e275      	ldi r23,37
                 
00005f d0cd      	rcall SRPantallaIzquierdaOn	
000060 b104      	in regUsoGeneral, adcl
000061 b185      	in regAdchHorizontal, adch
                 
                 	; Una vez obtenido los valores de la conversión procedemos a filtrar por
                 	; el valor del adch
                 
000062 3083      	cpi regAdchHorizontal,3
000063 f139      	breq terceraColumna 
000064 3082      	cpi regAdchHorizontal,2
000065 f031      	breq posibleColumna23
000066 3081      	cpi regAdchHorizontal,1
000067 f009      	breq posibleColumna12
000068 c006      	rjmp primeraColumna 
                 
                 ; Filtramos por los valores de adcl para saber qué columna ha sido seleccionada
                 
                 posibleColumna12:
000069 3609      	cpi regUsoGeneral,105
00006a f020      	brlo primeraColumna 
00006b c011      	rjmp segundaColumna
                 
                 posibleColumna23:
00006c 320b      	cpi regUsoGeneral, 43
00006d f078      	brlo segundaColumna
00006e c01c      	rjmp terceraColumna 
                 
                 ; Comparamos el valor del registro encargado de almacenar el numero
                 ; de la fila y encendemos el número correspondiente
                 	
                 primeraColumna:
                 	
                 	; Comparación número 1
                 
00006f 30f1      	cpi regFila, 1
000070 f031      	breq encenderNumero01
                 
                 	; Comparación numero 4
                 
000071 30f2      	cpi regFila, 2
000072 f031      	breq encenderNumero04
                 	
                 	; Comparación numero 7
000073 30f3      	cpi regFila, 3
000074 f031      	breq encenderNumero07
                 	
000075 e0f0      	ldi regFila,0
000076 cfac      	rjmp inicio
                 
                 ;Acordarse de nombre el problema de las llamadas a las breq
                 ; Parte del código encargadas para la llamada a las subrutinas de encendido del número
                 	encenderNumero01:
000077 d021      		rcall SREncenderNumero1
000078 cfaa      		rjmp inicio
                 	encenderNumero04:
000079 d02f      		rcall SREncenderNumero4
00007a cfa8      		rjmp inicio
                 	encenderNumero07:
00007b d03e      		rcall SREncenderNumero7
00007c cfa6      		rjmp inicio
                 
                 
                 segundaColumna:
                 
00007d 30f1      	cpi regFila, 1
00007e f031      	breq encenderNumero02
                 
00007f 30f2      	cpi regFila, 2
000080 f031      	breq encenderNumero05
                 
000081 30f3      	cpi regFila, 3
000082 f031      	breq encenderNumero08
                 
000083 e0f0      	ldi regFila,0
000084 cf9e      	rjmp inicio
                 
                 	encenderNumero02:
000085 d019      		rcall SREncenderNumero2
000086 cf9c      		rjmp inicio
                 	encenderNumero05:
000087 d027      		rcall SREncenderNumero5
000088 cf9a      		rjmp inicio
                 	encenderNumero08:
000089 d036      		rcall SREncenderNumero8
00008a cf98      		rjmp inicio
                 
                 terceraColumna:
00008b 30f1      	cpi regFila, 1
00008c f031      	breq encenderNumero03
                 
00008d 30f2      	cpi regFila, 2
00008e f031      	breq encenderNumero06
                 
00008f 30f3      	cpi regFila, 3
000090 f031      	breq encenderNumero09
                 
000091 e0f0      	ldi regFila,0
000092 cf90      	rjmp inicio
                 
                 	encenderNumero03:
000093 d010      		rcall SREncenderNumero3
000094 cf8e      		rjmp inicio
                 	encenderNumero06:
000095 d01f      		rcall SREncenderNumero6
000096 cf8c      		rjmp inicio
                 	encenderNumero09:
000097 d02d      		rcall SREncenderNumero9
000098 cf8a      		rjmp inicio
                 
                 	
                 ; Subrutinas de encendido de número
                 SREncenderNumero1:
                 	
000099 e1f2      	ldi ZH,HIGH(Numero1*2)    
00009a ede0      	ldi ZL,LOW(Numero1*2)
00009b d05c      	rcall SRPintar
                 	
                 	; Llamada a la secuencia de desbloqueo3
                 	
00009c d036      	rcall SRDesbloqueo3
                 
                 	; Llamada al contador
00009d d03a      	rcall SRContador
00009e 9508      	ret
                 
                 SREncenderNumero2:
                 
00009f e1f6      	ldi ZH, HIGH(Numero2*2)    
0000a0 ede0      	ldi ZL, LOW(Numero2*2)
0000a1 d056      	rcall SRPintar
0000a2 d035      	rcall SRContador
0000a3 9508      	ret
                 
                 SREncenderNumero3:
                 
0000a4 e1fa      	ldi ZH,HIGH(Numero3*2)    
0000a5 ede0      	ldi ZL,LOW(Numero3*2)
0000a6 d051      	rcall SRPintar
0000a7 d030      	rcall SRContador
0000a8 9508      	ret
                 
                 SREncenderNumero4:
                 
0000a9 e1fe      	ldi ZH,HIGH(Numero4*2)    
0000aa ede0      	ldi ZL,LOW(Numero4*2)
0000ab d04c      	rcall SRPintar
0000ac d020      	rcall SRDesbloqueo1
0000ad d02a      	rcall SRContador
0000ae 9508      	ret
                 
                 SREncenderNumero5:
0000af e2f2      	ldi ZH,HIGH(Numero5*2)    
0000b0 ede0      	ldi ZL,LOW(Numero5*2)
0000b1 d046      	rcall SRPintar
0000b2 d017      	rcall SRDesbloqueo
0000b3 d024      	rcall SRContador
0000b4 9508      	ret
                 
                 SREncenderNumero6:
0000b5 e2f6      	ldi ZH,HIGH(Numero6*2)    
0000b6 ede0      	ldi ZL,LOW(Numero6*2)
0000b7 d040      	rcall SRPintar
0000b8 d01f      	rcall SRContador
0000b9 9508      	ret
                 
                 SREncenderNumero7:
0000ba e2fa      	ldi ZH,HIGH(Numero7*2)    
0000bb ede0      	ldi ZL,LOW(Numero7*2)
0000bc d013      	rcall SRDesbloqueo2
0000bd d03a      	rcall SRPintar
0000be d019      	rcall SRContador
0000bf 9508      	ret
                 
                 SREncenderNumero8:
0000c0 e2fe      	ldi ZH,HIGH(Numero8*2)    
0000c1 ede0      	ldi ZL,LOW(Numero8*2)
0000c2 d035      	rcall SRPintar
0000c3 d014      	rcall SRContador
0000c4 9508      	ret
                 
                 SREncenderNumero9:
0000c5 e3f2      	ldi ZH,HIGH(Numero9*2)    
0000c6 ede0      	ldi ZL,LOW(Numero9*2)
0000c7 d030      	rcall SRPintar
0000c8 d00f      	rcall SRContador
0000c9 9508      	ret
                 
                 ; Subrutina encargada del desbloqueo, se irán llamando a las secuencias en orden.
                 ; estas comparan el registro encargado y en caso de estar con el valor correcto
                 ; se aumentará el valor y saldrá de la subrutina, de lo contrario saldrá sin realizar 
                 ; ningún cambio
                 SRDesbloqueo:
0000ca 3030      	cpi regDesbloqueo,0
0000cb f051      	breq SRDesbloqueoAumento
0000cc 9508      	ret
                 
                 SRDesbloqueo1:
0000cd 3031      	cpi regDesbloqueo,1
0000ce f039      	breq SRDesbloqueoAumento
0000cf 9508      	ret
                 
                 SRDesbloqueo2:
0000d0 3032      	cpi regDesbloqueo,2
0000d1 f021      	breq SRDesbloqueoAumento
0000d2 9508      	ret
                 SRDesbloqueo3:
0000d3 3033      	cpi regDesbloqueo,3
0000d4 f009      	breq SRDesbloqueoAumento
0000d5 9508      	ret
                 
                 SRDesbloqueoAumento:
0000d6 9533      	inc regDesbloqueo
0000d7 9508      	ret
                 
                 ; Subrutina encargada de leer el número de veces que se ha pulsado
                 ; un número en la pantalla. 
                 
                 SRContador:
0000d8 95d3      	inc regVecesPulsado
                 
                 	; Comprueba el valor del registro de desbloqueo, si es correcto
                 	; llama a la etiqueta desbloquear.
                 
0000d9 3034      	cpi regDesbloqueo,4
0000da f019      	breq SRDesbloquear
                 
                 	; Comprueba el valor del registro de pulsaciones, en caso de haber
                 	; pulsado 4 veces saltará a la etiqueta Fallo
                 
0000db 30d4      	cpi regVecesPulsado,4
0000dc f031      	breq SRFallo
0000dd 9508      	ret
                 
                 ; Subrutina de desbloqueo
                 
                 SRDesbloquear:
                 
                 	; Pinta en la GLCD la imagen de desbloqueo
                 
0000de d015      	rcall SRDesbloqueado
0000df d073      	rcall RetardoLargo
                 
                 	; Setea los valores de las cuentas a 0
                 
0000e0 e030      	ldi regDesbloqueo,0
0000e1 e0d0      	ldi regVecesPulsado,0
0000e2 9508      	ret
                 
                 ; Subrutina de fallo
                 
                 SRFallo:
                 	; Pinta en la GLCD la imagen de failed
                 
0000e3 d00c      	rcall Fallado
0000e4 d06e      	rcall RetardoLargo
                 	
                 	; Setea los valores de las cuentas a 0
                 
0000e5 e030      	ldi regDesbloqueo,0
0000e6 e0d0      	ldi regVecesPulsado,0
0000e7 9508      	ret
                 
                 ;Comentar aquí
                 
                 SRNumeros:
0000e8 e0fa      	ldi ZH,HIGH(Numeros*2)
0000e9 ede0      	ldi ZL,LOW(Numeros*2)
0000ea d00d      	rcall SRPintar
0000eb 9508      	ret
                 
                 SRLimpiar:
                 	
0000ec e0fe      	ldi ZH,HIGH(Blanco*2)     ;El puntero tendrá la dirección de la tabla para el menú 
0000ed ede0      	ldi ZL,LOW(Blanco*2)
0000ee d009      	rcall SRPintar
0000ef 9508      	ret
                 
                 Fallado:
0000f0 e0f2      	ldi ZH,HIGH(Failed*2)     ;El puntero tendrá la dirección de la tabla para el menú 
0000f1 ede0      	ldi ZL,LOW(Failed*2)
0000f2 d005      	rcall SRPintar
0000f3 9508      	ret
                 
                 SRDesbloqueado:
                 	
0000f4 e0f6      	ldi ZH,HIGH(Unlocked*2)     ;El puntero tendrá la dirección de la tabla para el menú 
0000f5 ede0      	ldi ZL,LOW(Unlocked*2)
0000f6 d001      	rcall SRPintar
0000f7 9508      	ret
                 
                 ; Rutina para enviar imágenes a la pantalla
                 
                 SRPintar:
                 	; Guarda los registros en la pila
                 
0000f8 930f      	push regUsoGeneral
0000f9 934f      	push r20 
0000fa 935f      	push r21 
                 	
                 	; Asociamos los valores a los registros
                 
0000fb e450      	ldi r21, 64  
0000fc e040      	ldi r20, 0
                 
                 Return: 
                 	; Pintamos la pantalla izquierda
                 
0000fd d00a      	rcall IZQ
0000fe d023      	rcall Dibujar  
                 	
                 	; Pintamos la pantalla derecha
                 
0000ff d015      	rcall DER  
000100 d021      	rcall Dibujar  
                 	
                 	; Incrementamos el valor del registro asociado al eje vertical
                 	; y comparamos, si superamos el numero de páginas se empieza de 0
                 
000101 9543      	inc r20   
000102 3048      	cpi r20,8
000103 f7c9      	brne Return 
000104 915f      	pop r21   
000105 914f      	pop r20 
000106 910f      	pop regUsoGeneral
000107 9508      	ret
                 
                 ; Configura la GLCD para empezar a escribir en la pantalla izquierda
                 
                 IZQ:   
                 
                 	; Guardamos los valores en la pila
000108 930f      	push regUsoGeneral
000109 934f      	push r20 
                 
00010a d022      	rcall SRPantallaIzquierdaOn
00010b e400      	ldi regUsoGeneral,0b01000000 
00010c bb05      	out PORTC, regUsoGeneral
00010d d025      	rcall SRModoConfig	
00010e eb08      	ldi regUsoGeneral,0b10111000 
00010f 2b04      	or regUsoGeneral,r20 
000110 bb05      	out PORTC, regUsoGeneral
000111 d021      	rcall SRModoConfig
                 	
                 	; Recuperamos los valores de la pila
000112 914f      	pop r20    
000113 910f      	pop regUsoGeneral
000114 9508      	ret
                 
                 
                 DER:   
                 	; Guardamos los valores en la pila
                 
000115 930f      	push regUsoGeneral
000116 934f      	push r20 
000117 d018      	rcall SRPantallaDerechaOn
000118 e400      	ldi regUsoGeneral,0b01000000 
000119 bb05      	out PORTC, regUsoGeneral
00011a d018      	rcall SRModoConfig
00011b eb08      	ldi regUsoGeneral,0b10111000 
00011c 2b04      	or regUsoGeneral,r20 
00011d bb05      	out PORTC, regUsoGeneral;R20 indicará la página a dibujar 
00011e d014      	rcall SRModoConfig
00011f 914f      	pop r20  ;Se recupera los valores de los registros 
000120 910f      	pop regUsoGeneral
000121 9508      	ret
                 
                 Dibujar:;Subrutina de apoyo para dibujar imagenes, una vez ajustado las direcciones y la    ;pantalla activada se procede a rellenar la página de los 64 pixeles. 
000122 920f      	push r0 ;Se guarda los valores de los registros en la pila 
000123 935f      	push r21 
                 ReDibujar: 
000124 95c8      	lpm;Carga a R0 el valor de la dirección apuntada por el puntero. 
000125 ba05      	out PORTC, r0 
000126 d013      	rcall Envio  ;Y se muestra por pantalla 
000127 9631      	adiw ZL,1  ;Se aumenta la dirección donde apunta el puntero 
000128 955a      	dec r21    
000129 f7d1      	brne ReDibujar  ;Cuando se haya dibujado 64 direcciones Y se terminará el bucle 
00012a 915f      	pop r21 ;Se recupera los valores de los registros 
00012b 900f      	pop r0 
00012c 9508      	ret
                 
                 
                 
                 SRPantallaIzquierdaOn:
                 
00012d 98c0      	cbi PORTB,0;
00012e 9ac1      	sbi PORTB,1
00012f 9508      	ret
                 
                 SRPantallaDerechaOn:
                 
000130 9ac0      	sbi PORTB,0
000131 98c1      	cbi PORTB,1
000132 9508      	ret
                 
                 SRModoConfig:
                 
000133 98da      	cbi PORTA,2
000134 98db      	cbi PORTA,3
000135 9a96      	sbi PORTD,6
000136 d025      	rcall Retardo100us
000137 9896      	cbi PORTD,6
000138 d023      	rcall Retardo100us
                 
000139 9508      	ret
                 
                 Envio:
                 
00013a 9ada      	sbi PORTA,2
00013b 98db      	cbi PORTA,3
00013c 9a96      	sbi PORTD,6
00013d d01e      	rcall Retardo100us
00013e 9896      	cbi PORTD,6
00013f d01c      	rcall Retardo100us
000140 9508      	ret
                 
                 Leer:
000141 930f      	push regUsoGeneral
                 
000142 e000      	ldi regUsoGeneral,0	;PC todo salida
000143 bb04      	out DDRC, regUsoGeneral
000144 9ada      	sbi PORTA,2
000145 9adb      	sbi PORTA,3
000146 9a96      	sbi PORTD,6
000147 d014      	rcall Retardo100us
000148 9896      	cbi PORTD,6
000149 d012      	rcall Retardo100us
00014a 9a96      	sbi PORTD,6
00014b d010      	rcall Retardo100us
00014c b3c3      	in r28, PINC
00014d 9896      	cbi PORTD,6
00014e d00d      	rcall Retardo100us
00014f ef0f      	ldi regUsoGeneral,255	;PC todo salida
000150 bb04      	out DDRC, regUsoGeneral
                 
000151 910f      	pop regUsoGeneral
                 
000152 9508      	ret
                 
                 RetardoLargo:
000153 e299          ldi  r25, 41
000154 e9a6          ldi  r26, 150
000155 e8b0          ldi  r27, 128
000156 95ba      L1: dec  r27
000157 f7f1          brne L1
000158 95aa          dec  r26
000159 f7e1          brne L1
00015a 959a          dec  r25
00015b f7d1          brne L1
                 
                 Retardo100us:
00015c e19a          ldi  r25, 26
00015d 959a      L2: dec  r25
00015e f7f1          brne L2
00015f 9508          ret
                 
                 
                 Retardo4ms:
000160 e29a          ldi  r25, 42
000161 e8ae          ldi  r26, 142
000162 95ba      L4: dec  r27
000163 f7f1          brne L4
000164 959a          dec  r25
000165 f7e1          brne L4
000166 0000          nop
000167 9508      	ret
                 
                 
                 
                 
                 Failed:
                 
000168 0000
000169 0000
00016a 0000
00016b 0000
00016c 0000
00016d 0000
00016e 0000
00016f 0000      	.db 0x00, 0x00, 0x00, 0x00, 0x00, 0x00, 0x00, 0x00, 0x00, 0x00, 0x00, 0x00, 0x00, 0x00, 0x00, 0x00
000170 0000
000171 0000
000172 0000
000173 0000
000174 0000
000175 0000
000176 0000
000177 0000      	.db 0x00, 0x00, 0x00, 0x00, 0x00, 0x00, 0x00, 0x00, 0x00, 0x00, 0x00, 0x00, 0x00, 0x00, 0x00, 0x00
000178 0000
000179 0000
00017a 0000
00017b 0000
00017c 0000
00017d 0000
00017e 0000
00017f 0000      	.db 0x00, 0x00, 0x00, 0x00, 0x00, 0x00, 0x00, 0x00, 0x00, 0x00, 0x00, 0x00, 0x00, 0x00, 0x00, 0x00
000180 0000
000181 0000
000182 0000
000183 0000
000184 0000
000185 0000
000186 0000
000187 0000      	.db 0x00, 0x00, 0x00, 0x00, 0x00, 0x00, 0x00, 0x00, 0x00, 0x00, 0x00, 0x00, 0x00, 0x00, 0x00, 0x00
000188 0000
000189 0000
00018a 0000
00018b 0000
00018c 0000
00018d 0000
00018e 0000
00018f 0000      	.db 0x00, 0x00, 0x00, 0x00, 0x00, 0x00, 0x00, 0x00, 0x00, 0x00, 0x00, 0x00, 0x00, 0x00, 0x00, 0x00
000190 0000
000191 0000
000192 0000
000193 0000
000194 0000
000195 0000
000196 0000
000197 0000      	.db 0x00, 0x00, 0x00, 0x00, 0x00, 0x00, 0x00, 0x00, 0x00, 0x00, 0x00, 0x00, 0x00, 0x00, 0x00, 0x00
000198 0000
000199 0000
00019a 0000
00019b 0000
00019c 0000
00019d 0000
00019e 0000
00019f 0000      	.db 0x00, 0x00, 0x00, 0x00, 0x00, 0x00, 0x00, 0x00, 0x00, 0x00, 0x00, 0x00, 0x00, 0x00, 0x00, 0x00
0001a0 0000
0001a1 0000
0001a2 0000
0001a3 0000
0001a4 0000
0001a5 0000
0001a6 0000
0001a7 0000      	.db 0x00, 0x00, 0x00, 0x00, 0x00, 0x00, 0x00, 0x00, 0x00, 0x00, 0x00, 0x00, 0x00, 0x00, 0x00, 0x00
0001a8 0000
0001a9 0000
0001aa 0000
0001ab 0000
0001ac 0000
0001ad 0000
0001ae 0000
0001af 0000      	.db 0x00, 0x00, 0x00, 0x00, 0x00, 0x00, 0x00, 0x00, 0x00, 0x00, 0x00, 0x00, 0x00, 0x00, 0x00, 0x00
0001b0 0000
0001b1 0000
0001b2 0000
0001b3 0000
0001b4 0000
0001b5 0000
0001b6 0000
0001b7 0000      	.db 0x00, 0x00, 0x00, 0x00, 0x00, 0x00, 0x00, 0x00, 0x00, 0x00, 0x00, 0x00, 0x00, 0x00, 0x00, 0x00
0001b8 0000
0001b9 0000
0001ba 0000
0001bb 0000
0001bc 0000
0001bd 0000
0001be 0000
0001bf 0000      	.db 0x00, 0x00, 0x00, 0x00, 0x00, 0x00, 0x00, 0x00, 0x00, 0x00, 0x00, 0x00, 0x00, 0x00, 0x00, 0x00
0001c0 0000
0001c1 0000
0001c2 0000
0001c3 0000
0001c4 0000
0001c5 0000
0001c6 0000
0001c7 0000      	.db 0x00, 0x00, 0x00, 0x00, 0x00, 0x00, 0x00, 0x00, 0x00, 0x00, 0x00, 0x00, 0x00, 0x00, 0x00, 0x00
0001c8 0000
0001c9 0000
0001ca 0000
0001cb 0000
0001cc 0000
0001cd 0000
0001ce 0000
0001cf 0000      	.db 0x00, 0x00, 0x00, 0x00, 0x00, 0x00, 0x00, 0x00, 0x00, 0x00, 0x00, 0x00, 0x00, 0x00, 0x00, 0x00
0001d0 0000
0001d1 0000
0001d2 0000
0001d3 0000
0001d4 0000
0001d5 0000
0001d6 0000
0001d7 0000      	.db 0x00, 0x00, 0x00, 0x00, 0x00, 0x00, 0x00, 0x00, 0x00, 0x00, 0x00, 0x00, 0x00, 0x00, 0x00, 0x00
0001d8 0000
0001d9 0000
0001da 0000
0001db 0000
0001dc 0000
0001dd 0000
0001de 0000
0001df 0000      	.db 0x00, 0x00, 0x00, 0x00, 0x00, 0x00, 0x00, 0x00, 0x00, 0x00, 0x00, 0x00, 0x00, 0x00, 0x00, 0x00
0001e0 0000
0001e1 0000
0001e2 0000
0001e3 0000
0001e4 0000
0001e5 0000
0001e6 0000
0001e7 0000      	.db 0x00, 0x00, 0x00, 0x00, 0x00, 0x00, 0x00, 0x00, 0x00, 0x00, 0x00, 0x00, 0x00, 0x00, 0x00, 0x00
0001e8 0000
0001e9 0000
0001ea 0000
0001eb 0000
0001ec 0000
0001ed 0000
0001ee 0000
0001ef 0000      	.db 0x00, 0x00, 0x00, 0x00, 0x00, 0x00, 0x00, 0x00, 0x00, 0x00, 0x00, 0x00, 0x00, 0x00, 0x00, 0x00
0001f0 0000
0001f1 0000
0001f2 0000
0001f3 0000
0001f4 c0c0
0001f5 c0c0
0001f6 c0c0
0001f7 c0c0      	.db 0x00, 0x00, 0x00, 0x00, 0x00, 0x00, 0x00, 0x00, 0xC0, 0xC0, 0xC0, 0xC0, 0xC0, 0xC0, 0xC0, 0xC0
0001f8 c0c0
0001f9 0000
0001fa 0000
0001fb 8000
0001fc c0c0
0001fd 0080
0001fe 0000
0001ff 0000      	.db 0xC0, 0xC0, 0x00, 0x00, 0x00, 0x00, 0x00, 0x80, 0xC0, 0xC0, 0x80, 0x00, 0x00, 0x00, 0x00, 0x00
000200 0000
000201 c0c0
000202 00c0
000203 0000
000204 0000
000205 c0c0
000206 0000
000207 0000      	.db 0x00, 0x00, 0xC0, 0xC0, 0xC0, 0x00, 0x00, 0x00, 0x00, 0x00, 0xC0, 0xC0, 0x00, 0x00, 0x00, 0x00
000208 0000
000209 0000
00020a c000
00020b c0c0
00020c c0c0
00020d c0c0
00020e c0c0
00020f 00c0      	.db 0x00, 0x00, 0x00, 0x00, 0x00, 0xC0, 0xC0, 0xC0, 0xC0, 0xC0, 0xC0, 0xC0, 0xC0, 0xC0, 0xC0, 0x00
000210 0000
000211 c0c0
000212 c0c0
000213 c0c0
000214 80c0
000215 0080
000216 0000
000217 0000      	.db 0x00, 0x00, 0xC0, 0xC0, 0xC0, 0xC0, 0xC0, 0xC0, 0xC0, 0x80, 0x80, 0x00, 0x00, 0x00, 0x00, 0x00
000218 0000
000219 c0c0
00021a 00c0
00021b 0000
00021c 0000
00021d 0000
00021e 0000
00021f 0000      	.db 0x00, 0x00, 0xC0, 0xC0, 0xC0, 0x00, 0x00, 0x00, 0x00, 0x00, 0x00, 0x00, 0x00, 0x00, 0x00, 0x00
000220 0000
000221 0000
000222 0000
000223 0000
000224 0000
000225 0000
000226 0000
000227 0000      	.db 0x00, 0x00, 0x00, 0x00, 0x00, 0x00, 0x00, 0x00, 0x00, 0x00, 0x00, 0x00, 0x00, 0x00, 0x00, 0x00
000228 0000
000229 0000
00022a 0000
00022b 0000
00022c 0000
00022d 0000
00022e 0000
00022f 0000      	.db 0x00, 0x00, 0x00, 0x00, 0x00, 0x00, 0x00, 0x00, 0x00, 0x00, 0x00, 0x00, 0x00, 0x00, 0x00, 0x00
000230 0000
000231 0000
000232 0000
000233 0000
000234 ffff
000235 c1ff
000236 c1c1
000237 c1c1      	.db 0x00, 0x00, 0x00, 0x00, 0x00, 0x00, 0x00, 0x00, 0xFF, 0xFF, 0xFF, 0xC1, 0xC1, 0xC1, 0xC1, 0xC1
000238 0101
000239 0000
00023a e000
00023b 077c
00023c 0703
00023d fc7f
00023e 00c0
00023f 0000      	.db 0x01, 0x01, 0x00, 0x00, 0x00, 0xE0, 0x7C, 0x07, 0x03, 0x07, 0x7F, 0xFC, 0xC0, 0x00, 0x00, 0x00
000240 0000
000241 ffff
000242 00ff
000243 0000
000244 0000
000245 ffff
000246 0000
000247 0000      	.db 0x00, 0x00, 0xFF, 0xFF, 0xFF, 0x00, 0x00, 0x00, 0x00, 0x00, 0xFF, 0xFF, 0x00, 0x00, 0x00, 0x00
000248 0000
000249 0000
00024a ff00
00024b ffff
00024c e1e1
00024d e1e1
00024e 01e1
00024f 0001      	.db 0x00, 0x00, 0x00, 0x00, 0x00, 0xFF, 0xFF, 0xFF, 0xE1, 0xE1, 0xE1, 0xE1, 0xE1, 0x01, 0x01, 0x00
000250 0000
000251 ffff
000252 01ff
000253 0101
000254 0301
000255 ff0f
000256 00fc
000257 0000      	.db 0x00, 0x00, 0xFF, 0xFF, 0xFF, 0x01, 0x01, 0x01, 0x01, 0x03, 0x0F, 0xFF, 0xFC, 0x00, 0x00, 0x00
000258 0000
000259 ff0f
00025a 001f
00025b 0000
00025c 0000
00025d 0000
00025e 0000
00025f 0000      	.db 0x00, 0x00, 0x0F, 0xFF, 0x1F, 0x00, 0x00, 0x00, 0x00, 0x00, 0x00, 0x00, 0x00, 0x00, 0x00, 0x00
000260 0000
000261 0000
000262 0000
000263 0000
000264 0000
000265 0000
000266 0000
000267 0000      	.db 0x00, 0x00, 0x00, 0x00, 0x00, 0x00, 0x00, 0x00, 0x00, 0x00, 0x00, 0x00, 0x00, 0x00, 0x00, 0x00
000268 0000
000269 0000
00026a 0000
00026b 0000
00026c 0000
00026d 0000
00026e 0000
00026f 0000      	.db 0x00, 0x00, 0x00, 0x00, 0x00, 0x00, 0x00, 0x00, 0x00, 0x00, 0x00, 0x00, 0x00, 0x00, 0x00, 0x00
000270 0000
000271 0000
000272 0000
000273 0000
000274 ffff
000275 01ff
000276 0101
000277 0101      	.db 0x00, 0x00, 0x00, 0x00, 0x00, 0x00, 0x00, 0x00, 0xFF, 0xFF, 0xFF, 0x01, 0x01, 0x01, 0x01, 0x01
000278 0000
000279 f080
00027a 0f7f
00027b 0e0e
00027c 0e0e
00027d 0f0e
00027e fe7f
00027f 00e0      	.db 0x00, 0x00, 0x80, 0xF0, 0x7F, 0x0F, 0x0E, 0x0E, 0x0E, 0x0E, 0x0E, 0x0F, 0x7F, 0xFE, 0xE0, 0x00
000280 0000
000281 ffff
000282 00ff
000283 0000
000284 0000
000285 ffff
000286 e0e0
000287 e0e0      	.db 0x00, 0x00, 0xFF, 0xFF, 0xFF, 0x00, 0x00, 0x00, 0x00, 0x00, 0xFF, 0xFF, 0xE0, 0xE0, 0xE0, 0xE0
000288 e0e0
000289 0000
00028a ff00
00028b ffff
00028c e0e0
00028d e0e0
00028e e0e0
00028f 00e0      	.db 0xE0, 0xE0, 0x00, 0x00, 0x00, 0xFF, 0xFF, 0xFF, 0xE0, 0xE0, 0xE0, 0xE0, 0xE0, 0xE0, 0xE0, 0x00
000290 0000
000291 ffff
000292 e0ff
000293 e0e0
000294 70e0
000295 3f7c
000296 000f
000297 0000      	.db 0x00, 0x00, 0xFF, 0xFF, 0xFF, 0xE0, 0xE0, 0xE0, 0xE0, 0x70, 0x7C, 0x3F, 0x0F, 0x00, 0x00, 0x00
000298 0000
000299 f7f0
00029a 00f0
00029b 0000
00029c 0000
00029d 0000
00029e 0000
00029f 0000      	.db 0x00, 0x00, 0xF0, 0xF7, 0xF0, 0x00, 0x00, 0x00, 0x00, 0x00, 0x00, 0x00, 0x00, 0x00, 0x00, 0x00
0002a0 0000
0002a1 0000
0002a2 0000
0002a3 0000
0002a4 0000
0002a5 0000
0002a6 0000
0002a7 0000      	.db 0x00, 0x00, 0x00, 0x00, 0x00, 0x00, 0x00, 0x00, 0x00, 0x00, 0x00, 0x00, 0x00, 0x00, 0x00, 0x00
0002a8 0000
0002a9 0000
0002aa 0000
0002ab 0000
0002ac 0000
0002ad 0000
0002ae 0000
0002af 0000      	.db 0x00, 0x00, 0x00, 0x00, 0x00, 0x00, 0x00, 0x00, 0x00, 0x00, 0x00, 0x00, 0x00, 0x00, 0x00, 0x00
0002b0 0000
0002b1 0000
0002b2 0000
0002b3 0000
0002b4 0000
0002b5 0000
0002b6 0000
0002b7 0000      	.db 0x00, 0x00, 0x00, 0x00, 0x00, 0x00, 0x00, 0x00, 0x00, 0x00, 0x00, 0x00, 0x00, 0x00, 0x00, 0x00
0002b8 0000
0002b9 0000
0002ba 0000
0002bb 0000
0002bc 0000
0002bd 0000
0002be 0000
0002bf 0000      	.db 0x00, 0x00, 0x00, 0x00, 0x00, 0x00, 0x00, 0x00, 0x00, 0x00, 0x00, 0x00, 0x00, 0x00, 0x00, 0x00
0002c0 0000
0002c1 0000
0002c2 0000
0002c3 0000
0002c4 0000
0002c5 0000
0002c6 0000
0002c7 0000      	.db 0x00, 0x00, 0x00, 0x00, 0x00, 0x00, 0x00, 0x00, 0x00, 0x00, 0x00, 0x00, 0x00, 0x00, 0x00, 0x00
0002c8 0000
0002c9 0000
0002ca 0000
0002cb 0000
0002cc 0000
0002cd 0000
0002ce 0000
0002cf 0000      	.db 0x00, 0x00, 0x00, 0x00, 0x00, 0x00, 0x00, 0x00, 0x00, 0x00, 0x00, 0x00, 0x00, 0x00, 0x00, 0x00
0002d0 0000
0002d1 0000
0002d2 0000
0002d3 0000
0002d4 0000
0002d5 0000
0002d6 0000
0002d7 0000      	.db 0x00, 0x00, 0x00, 0x00, 0x00, 0x00, 0x00, 0x00, 0x00, 0x00, 0x00, 0x00, 0x00, 0x00, 0x00, 0x00
0002d8 0000
0002d9 0000
0002da 0000
0002db 0000
0002dc 0000
0002dd 0000
0002de 0000
0002df 0000      	.db 0x00, 0x00, 0x00, 0x00, 0x00, 0x00, 0x00, 0x00, 0x00, 0x00, 0x00, 0x00, 0x00, 0x00, 0x00, 0x00
0002e0 0000
0002e1 0000
0002e2 0000
0002e3 0000
0002e4 0000
0002e5 0000
0002e6 0000
0002e7 0000      	.db 0x00, 0x00, 0x00, 0x00, 0x00, 0x00, 0x00, 0x00, 0x00, 0x00, 0x00, 0x00, 0x00, 0x00, 0x00, 0x00
0002e8 0000
0002e9 0000
0002ea 0000
0002eb 0000
0002ec 0000
0002ed 0000
0002ee 0000
0002ef 0000      	.db 0x00, 0x00, 0x00, 0x00, 0x00, 0x00, 0x00, 0x00, 0x00, 0x00, 0x00, 0x00, 0x00, 0x00, 0x00, 0x00
0002f0 0000
0002f1 0000
0002f2 0000
0002f3 0000
0002f4 0000
0002f5 0000
0002f6 0000
0002f7 0000      	.db 0x00, 0x00, 0x00, 0x00, 0x00, 0x00, 0x00, 0x00, 0x00, 0x00, 0x00, 0x00, 0x00, 0x00, 0x00, 0x00
0002f8 0000
0002f9 0000
0002fa 0000
0002fb 0000
0002fc 0000
0002fd 0000
0002fe 0000
0002ff 0000      	.db 0x00, 0x00, 0x00, 0x00, 0x00, 0x00, 0x00, 0x00, 0x00, 0x00, 0x00, 0x00, 0x00, 0x00, 0x00, 0x00
000300 0000
000301 0000
000302 0000
000303 0000
000304 0000
000305 0000
000306 0000
000307 0000      	.db 0x00, 0x00, 0x00, 0x00, 0x00, 0x00, 0x00, 0x00, 0x00, 0x00, 0x00, 0x00, 0x00, 0x00, 0x00, 0x00
000308 0000
000309 0000
00030a 0000
00030b 0000
00030c 0000
00030d 0000
00030e 0000
00030f 0000      	.db 0x00, 0x00, 0x00, 0x00, 0x00, 0x00, 0x00, 0x00, 0x00, 0x00, 0x00, 0x00, 0x00, 0x00, 0x00, 0x00
000310 0000
000311 0000
000312 0000
000313 0000
000314 0000
000315 0000
000316 0000
000317 0000      	.db 0x00, 0x00, 0x00, 0x00, 0x00, 0x00, 0x00, 0x00, 0x00, 0x00, 0x00, 0x00, 0x00, 0x00, 0x00, 0x00
000318 0000
000319 0000
00031a 0000
00031b 0000
00031c 0000
00031d 0000
00031e 0000
00031f 0000      	.db 0x00, 0x00, 0x00, 0x00, 0x00, 0x00, 0x00, 0x00, 0x00, 0x00, 0x00, 0x00, 0x00, 0x00, 0x00, 0x00
000320 0000
000321 0000
000322 0000
000323 0000
000324 0000
000325 0000
000326 0000
000327 0000      	.db 0x00, 0x00, 0x00, 0x00, 0x00, 0x00, 0x00, 0x00, 0x00, 0x00, 0x00, 0x00, 0x00, 0x00, 0x00, 0x00
000328 0000
000329 0000
00032a 0000
00032b 0000
00032c 0000
00032d 0000
00032e 0000
00032f 0000      	.db 0x00, 0x00, 0x00, 0x00, 0x00, 0x00, 0x00, 0x00, 0x00, 0x00, 0x00, 0x00, 0x00, 0x00, 0x00, 0x00
000330 0000
000331 0000
000332 0000
000333 0000
000334 0000
000335 0000
000336 0000
000337 0000      	.db 0x00, 0x00, 0x00, 0x00, 0x00, 0x00, 0x00, 0x00, 0x00, 0x00, 0x00, 0x00, 0x00, 0x00, 0x00, 0x00
000338 0000
000339 0000
00033a 0000
00033b 0000
00033c 0000
00033d 0000
00033e 0000
00033f 0000      	.db 0x00, 0x00, 0x00, 0x00, 0x00, 0x00, 0x00, 0x00, 0x00, 0x00, 0x00, 0x00, 0x00, 0x00, 0x00, 0x00
000340 0000
000341 0000
000342 0000
000343 0000
000344 0000
000345 0000
000346 0000
000347 0000      	.db 0x00, 0x00, 0x00, 0x00, 0x00, 0x00, 0x00, 0x00, 0x00, 0x00, 0x00, 0x00, 0x00, 0x00, 0x00, 0x00
000348 0000
000349 0000
00034a 0000
00034b 0000
00034c 0000
00034d 0000
00034e 0000
00034f 0000      	.db 0x00, 0x00, 0x00, 0x00, 0x00, 0x00, 0x00, 0x00, 0x00, 0x00, 0x00, 0x00, 0x00, 0x00, 0x00, 0x00
000350 0000
000351 0000
000352 0000
000353 0000
000354 0000
000355 0000
000356 0000
000357 0000      	.db 0x00, 0x00, 0x00, 0x00, 0x00, 0x00, 0x00, 0x00, 0x00, 0x00, 0x00, 0x00, 0x00, 0x00, 0x00, 0x00
000358 0000
000359 0000
00035a 0000
00035b 0000
00035c 0000
00035d 0000
00035e 0000
00035f 0000      	.db 0x00, 0x00, 0x00, 0x00, 0x00, 0x00, 0x00, 0x00, 0x00, 0x00, 0x00, 0x00, 0x00, 0x00, 0x00, 0x00
000360 0000
000361 0000
000362 0000
000363 0000
000364 0000
000365 0000
000366 0000
000367 0000      	.db 0x00, 0x00, 0x00, 0x00, 0x00, 0x00, 0x00, 0x00, 0x00, 0x00, 0x00, 0x00, 0x00, 0x00, 0x00, 0x00
                 
                 
                 
                 Unlocked:
                 
000368 0000
000369 0000
00036a 0000
00036b 0000
00036c 0000
00036d 0000
00036e 0000
00036f 0000      	.db 0x00, 0x00, 0x00, 0x00, 0x00, 0x00, 0x00, 0x00, 0x00, 0x00, 0x00, 0x00, 0x00, 0x00, 0x00, 0x00
000370 0000
000371 0000
000372 0000
000373 0000
000374 0000
000375 0000
000376 0000
000377 0000      	.db 0x00, 0x00, 0x00, 0x00, 0x00, 0x00, 0x00, 0x00, 0x00, 0x00, 0x00, 0x00, 0x00, 0x00, 0x00, 0x00
000378 0000
000379 0000
00037a 0000
00037b 0000
00037c 0000
00037d 0000
00037e 0000
00037f 0000      	.db 0x00, 0x00, 0x00, 0x00, 0x00, 0x00, 0x00, 0x00, 0x00, 0x00, 0x00, 0x00, 0x00, 0x00, 0x00, 0x00
000380 0000
000381 0000
000382 0000
000383 0000
000384 0000
000385 0000
000386 0000
000387 0000      	.db 0x00, 0x00, 0x00, 0x00, 0x00, 0x00, 0x00, 0x00, 0x00, 0x00, 0x00, 0x00, 0x00, 0x00, 0x00, 0x00
000388 0000
000389 0000
00038a 0000
00038b 0000
00038c 0000
00038d 0000
00038e 0000
00038f 0000      	.db 0x00, 0x00, 0x00, 0x00, 0x00, 0x00, 0x00, 0x00, 0x00, 0x00, 0x00, 0x00, 0x00, 0x00, 0x00, 0x00
000390 0000
000391 0000
000392 0000
000393 0000
000394 0000
000395 0000
000396 0000
000397 0000      	.db 0x00, 0x00, 0x00, 0x00, 0x00, 0x00, 0x00, 0x00, 0x00, 0x00, 0x00, 0x00, 0x00, 0x00, 0x00, 0x00
000398 0000
000399 0000
00039a 0000
00039b 0000
00039c 0000
00039d 0000
00039e 0000
00039f 0000      	.db 0x00, 0x00, 0x00, 0x00, 0x00, 0x00, 0x00, 0x00, 0x00, 0x00, 0x00, 0x00, 0x00, 0x00, 0x00, 0x00
0003a0 0000
0003a1 0000
0003a2 0000
0003a3 0000
0003a4 0000
0003a5 0000
0003a6 0000
0003a7 0000      	.db 0x00, 0x00, 0x00, 0x00, 0x00, 0x00, 0x00, 0x00, 0x00, 0x00, 0x00, 0x00, 0x00, 0x00, 0x00, 0x00
0003a8 0000
0003a9 0000
0003aa 0000
0003ab 0000
0003ac 0000
0003ad 0000
0003ae 0000
0003af 0000      	.db 0x00, 0x00, 0x00, 0x00, 0x00, 0x00, 0x00, 0x00, 0x00, 0x00, 0x00, 0x00, 0x00, 0x00, 0x00, 0x00
0003b0 0000
0003b1 0000
0003b2 0000
0003b3 0000
0003b4 0000
0003b5 0000
0003b6 0000
0003b7 0000      	.db 0x00, 0x00, 0x00, 0x00, 0x00, 0x00, 0x00, 0x00, 0x00, 0x00, 0x00, 0x00, 0x00, 0x00, 0x00, 0x00
0003b8 0000
0003b9 0000
0003ba 0000
0003bb 0000
0003bc 0000
0003bd 0000
0003be 0000
0003bf 0000      	.db 0x00, 0x00, 0x00, 0x00, 0x00, 0x00, 0x00, 0x00, 0x00, 0x00, 0x00, 0x00, 0x00, 0x00, 0x00, 0x00
0003c0 0000
0003c1 0000
0003c2 0000
0003c3 0000
0003c4 0000
0003c5 0000
0003c6 0000
0003c7 0000      	.db 0x00, 0x00, 0x00, 0x00, 0x00, 0x00, 0x00, 0x00, 0x00, 0x00, 0x00, 0x00, 0x00, 0x00, 0x00, 0x00
0003c8 0000
0003c9 0000
0003ca 0000
0003cb 0000
0003cc 0000
0003cd 0000
0003ce 0000
0003cf 0000      	.db 0x00, 0x00, 0x00, 0x00, 0x00, 0x00, 0x00, 0x00, 0x00, 0x00, 0x00, 0x00, 0x00, 0x00, 0x00, 0x00
0003d0 0000
0003d1 0000
0003d2 0000
0003d3 0000
0003d4 0000
0003d5 0000
0003d6 0000
0003d7 0000      	.db 0x00, 0x00, 0x00, 0x00, 0x00, 0x00, 0x00, 0x00, 0x00, 0x00, 0x00, 0x00, 0x00, 0x00, 0x00, 0x00
0003d8 0000
0003d9 0000
0003da 0000
0003db 0000
0003dc 0000
0003dd 0000
0003de 0000
0003df 0000      	.db 0x00, 0x00, 0x00, 0x00, 0x00, 0x00, 0x00, 0x00, 0x00, 0x00, 0x00, 0x00, 0x00, 0x00, 0x00, 0x00
0003e0 0000
0003e1 0000
0003e2 0000
0003e3 0000
0003e4 0000
0003e5 0000
0003e6 0000
0003e7 0000      	.db 0x00, 0x00, 0x00, 0x00, 0x00, 0x00, 0x00, 0x00, 0x00, 0x00, 0x00, 0x00, 0x00, 0x00, 0x00, 0x00
0003e8 0000
0003e9 0000
0003ea 0000
0003eb 8080
0003ec 0000
0003ed 0000
0003ee 0000
0003ef 8000      	.db 0x00, 0x00, 0x00, 0x00, 0x00, 0x00, 0x80, 0x80, 0x00, 0x00, 0x00, 0x00, 0x00, 0x00, 0x00, 0x80
0003f0 0000
0003f1 0000
0003f2 8000
0003f3 8080
0003f4 0080
0003f5 0000
0003f6 0000
0003f7 8080      	.db 0x00, 0x00, 0x00, 0x00, 0x00, 0x80, 0x80, 0x80, 0x80, 0x00, 0x00, 0x00, 0x00, 0x00, 0x80, 0x80
0003f8 0000
0003f9 0000
0003fa 8000
0003fb 0080
0003fc 0000
0003fd 0000
0003fe 0000
0003ff 0000      	.db 0x00, 0x00, 0x00, 0x00, 0x00, 0x80, 0x80, 0x00, 0x00, 0x00, 0x00, 0x00, 0x00, 0x00, 0x00, 0x00
000400 0000
000401 0000
000402 8080
000403 0080
000404 0000
000405 0000
000406 0000
000407 0000      	.db 0x00, 0x00, 0x00, 0x00, 0x80, 0x80, 0x80, 0x00, 0x00, 0x00, 0x00, 0x00, 0x00, 0x00, 0x00, 0x00
000408 0000
000409 8000
00040a 8080
00040b 0080
00040c 0000
00040d 0000
00040e 0000
00040f 8080      	.db 0x00, 0x00, 0x00, 0x80, 0x80, 0x80, 0x80, 0x00, 0x00, 0x00, 0x00, 0x00, 0x00, 0x00, 0x80, 0x80
000410 0080
000411 0000
000412 0000
000413 8080
000414 0080
000415 0000
000416 8080
000417 8080      	.db 0x80, 0x00, 0x00, 0x00, 0x00, 0x00, 0x80, 0x80, 0x80, 0x00, 0x00, 0x00, 0x80, 0x80, 0x80, 0x80
000418 8080
000419 8080
00041a 8080
00041b 0000
00041c 8000
00041d 8080
00041e 8080
00041f 8080      	.db 0x80, 0x80, 0x80, 0x80, 0x80, 0x80, 0x00, 0x00, 0x00, 0x80, 0x80, 0x80, 0x80, 0x80, 0x80, 0x80
000420 0000
000421 0000
000422 0000
000423 0000
000424 8000
000425 8080
000426 0000
000427 0000      	.db 0x00, 0x00, 0x00, 0x00, 0x00, 0x00, 0x00, 0x00, 0x00, 0x80, 0x80, 0x80, 0x00, 0x00, 0x00, 0x00
000428 0000
000429 0000
00042a 0000
00042b ffff
00042c 0000
00042d 0000
00042e 0000
00042f ff00      	.db 0x00, 0x00, 0x00, 0x00, 0x00, 0x00, 0xFF, 0xFF, 0x00, 0x00, 0x00, 0x00, 0x00, 0x00, 0x00, 0xFF
000430 0000
000431 0000
000432 ff00
000433 0fff
000434 3c0f
000435 80e0
000436 0000
000437 ffff      	.db 0x00, 0x00, 0x00, 0x00, 0x00, 0xFF, 0xFF, 0x0F, 0x0F, 0x3C, 0xE0, 0x80, 0x00, 0x00, 0xFF, 0xFF
000438 0000
000439 0000
00043a ff00
00043b 00ff
00043c 0000
00043d 0000
00043e 0000
00043f 0000      	.db 0x00, 0x00, 0x00, 0x00, 0x00, 0xFF, 0xFF, 0x00, 0x00, 0x00, 0x00, 0x00, 0x00, 0x00, 0x00, 0x00
000440 fef8
000441 033f
000442 0303
000443 0303
000444 fe3f
000445 00f8
000446 0000
000447 f000      	.db 0xF8, 0xFE, 0x3F, 0x03, 0x03, 0x03, 0x03, 0x03, 0x3F, 0xFE, 0xF8, 0x00, 0x00, 0x00, 0x00, 0xF0
000448 fffc
000449 0307
00044a 0303
00044b 0703
00044c 3c3f
00044d 0020
00044e 0000
00044f ffff      	.db 0xFC, 0xFF, 0x07, 0x03, 0x03, 0x03, 0x03, 0x07, 0x3F, 0x3C, 0x20, 0x00, 0x00, 0x00, 0xFF, 0xFF
000450 c0ff
000451 f0c0
000452 0ef8
000453 0107
000454 0000
000455 0000
000456 ffff
000457 c3ff      	.db 0xFF, 0xC0, 0xC0, 0xF0, 0xF8, 0x0E, 0x07, 0x01, 0x00, 0x00, 0x00, 0x00, 0xFF, 0xFF, 0xFF, 0xC3
000458 c3c3
000459 c3c3
00045a 0303
00045b 0000
00045c ff00
00045d ffff
00045e 0303
00045f 0303      	.db 0xC3, 0xC3, 0xC3, 0xC3, 0x03, 0x03, 0x00, 0x00, 0x00, 0xFF, 0xFF, 0xFF, 0x03, 0x03, 0x03, 0x03
000460 1f07
000461 f8fe
000462 0000
000463 0000
000464 1f00
000465 3fff
000466 0000
000467 0000      	.db 0x07, 0x1F, 0xFE, 0xF8, 0x00, 0x00, 0x00, 0x00, 0x00, 0x1F, 0xFF, 0x3F, 0x00, 0x00, 0x00, 0x00
000468 0000
000469 0000
00046a 0000
00046b ff7f
00046c c0e0
00046d c0c0
00046e c0c0
00046f 7fe0      	.db 0x00, 0x00, 0x00, 0x00, 0x00, 0x00, 0x7F, 0xFF, 0xE0, 0xC0, 0xC0, 0xC0, 0xC0, 0xC0, 0xE0, 0x7F
000470 0000
000471 0000
000472 ff00
000473 00ff
000474 0000
000475 0701
000476 fc3c
000477 ffff      	.db 0x00, 0x00, 0x00, 0x00, 0x00, 0xFF, 0xFF, 0x00, 0x00, 0x00, 0x01, 0x07, 0x3C, 0xFC, 0xFF, 0xFF
000478 0000
000479 0000
00047a ff00
00047b c0ff
00047c c0c0
00047d c0c0
00047e 00c0
00047f 0000      	.db 0x00, 0x00, 0x00, 0x00, 0x00, 0xFF, 0xFF, 0xC0, 0xC0, 0xC0, 0xC0, 0xC0, 0xC0, 0x00, 0x00, 0x00
000480 7f1f
000481 c0fc
000482 c0c0
000483 c0c0
000484 7ffc
000485 001f
000486 0000
000487 0f00      	.db 0x1F, 0x7F, 0xFC, 0xC0, 0xC0, 0xC0, 0xC0, 0xC0, 0xFC, 0x7F, 0x1F, 0x00, 0x00, 0x00, 0x00, 0x0F
000488 ff3f
000489 c0e0
00048a c0c0
00048b e0c0
00048c 3c7c
00048d 0004
00048e 0000
00048f ffff      	.db 0x3F, 0xFF, 0xE0, 0xC0, 0xC0, 0xC0, 0xC0, 0xE0, 0x7C, 0x3C, 0x04, 0x00, 0x00, 0x00, 0xFF, 0xFF
000490 03ff
000491 0101
000492 1f07
000493 f0fc
000494 0080
000495 0000
000496 ffff
000497 c1ff      	.db 0xFF, 0x03, 0x01, 0x01, 0x07, 0x1F, 0xFC, 0xF0, 0x80, 0x00, 0x00, 0x00, 0xFF, 0xFF, 0xFF, 0xC1
000498 c1c1
000499 c1c1
00049a c0c0
00049b 0000
00049c ff00
00049d ffff
00049e c0c0
00049f c0c0      	.db 0xC1, 0xC1, 0xC1, 0xC1, 0xC0, 0xC0, 0x00, 0x00, 0x00, 0xFF, 0xFF, 0xFF, 0xC0, 0xC0, 0xC0, 0xC0
0004a0 f8e0
0004a1 1f7f
0004a2 0000
0004a3 0000
0004a4 e000
0004a5 e0ef
0004a6 0000
0004a7 0000      	.db 0xE0, 0xF8, 0x7F, 0x1F, 0x00, 0x00, 0x00, 0x00, 0x00, 0xE0, 0xEF, 0xE0, 0x00, 0x00, 0x00, 0x00
0004a8 0000
0004a9 0000
0004aa 0000
0004ab 0000
0004ac 0100
0004ad 0101
0004ae 0001
0004af 0000      	.db 0x00, 0x00, 0x00, 0x00, 0x00, 0x00, 0x00, 0x00, 0x00, 0x01, 0x01, 0x01, 0x01, 0x00, 0x00, 0x00
0004b0 0000
0004b1 0000
0004b2 0100
0004b3 0001
0004b4 0000
0004b5 0000
0004b6 0100
0004b7 0101      	.db 0x00, 0x00, 0x00, 0x00, 0x00, 0x01, 0x01, 0x00, 0x00, 0x00, 0x00, 0x00, 0x00, 0x01, 0x01, 0x01
0004b8 0000
0004b9 0000
0004ba 0100
0004bb 0101
0004bc 0101
0004bd 0101
0004be 0001
0004bf 0000      	.db 0x00, 0x00, 0x00, 0x00, 0x00, 0x01, 0x01, 0x01, 0x01, 0x01, 0x01, 0x01, 0x01, 0x00, 0x00, 0x00
0004c0 0000
0004c1 0000
0004c2 0101
0004c3 0001
0004c4 0000
0004c5 0000
0004c6 0000
0004c7 0000      	.db 0x00, 0x00, 0x00, 0x00, 0x01, 0x01, 0x01, 0x00, 0x00, 0x00, 0x00, 0x00, 0x00, 0x00, 0x00, 0x00
0004c8 0000
0004c9 0100
0004ca 0101
0004cb 0001
0004cc 0000
0004cd 0000
0004ce 0000
0004cf 0101      	.db 0x00, 0x00, 0x00, 0x01, 0x01, 0x01, 0x01, 0x00, 0x00, 0x00, 0x00, 0x00, 0x00, 0x00, 0x01, 0x01
0004d0 0001
0004d1 0000
0004d2 0000
0004d3 0100
0004d4 0001
0004d5 0000
0004d6 0101
0004d7 0101      	.db 0x01, 0x00, 0x00, 0x00, 0x00, 0x00, 0x00, 0x01, 0x01, 0x00, 0x00, 0x00, 0x01, 0x01, 0x01, 0x01
0004d8 0101
0004d9 0101
0004da 0101
0004db 0000
0004dc 0100
0004dd 0101
0004de 0101
0004df 0101      	.db 0x01, 0x01, 0x01, 0x01, 0x01, 0x01, 0x00, 0x00, 0x00, 0x01, 0x01, 0x01, 0x01, 0x01, 0x01, 0x01
0004e0 0000
0004e1 0000
0004e2 0000
0004e3 0000
0004e4 0100
0004e5 0101
0004e6 0000
0004e7 0000      	.db 0x00, 0x00, 0x00, 0x00, 0x00, 0x00, 0x00, 0x00, 0x00, 0x01, 0x01, 0x01, 0x00, 0x00, 0x00, 0x00
0004e8 0000
0004e9 0000
0004ea 0000
0004eb 0000
0004ec 0000
0004ed 0000
0004ee 0000
0004ef 0000      	.db 0x00, 0x00, 0x00, 0x00, 0x00, 0x00, 0x00, 0x00, 0x00, 0x00, 0x00, 0x00, 0x00, 0x00, 0x00, 0x00
0004f0 0000
0004f1 0000
0004f2 0000
0004f3 0000
0004f4 0000
0004f5 0000
0004f6 0000
0004f7 0000      	.db 0x00, 0x00, 0x00, 0x00, 0x00, 0x00, 0x00, 0x00, 0x00, 0x00, 0x00, 0x00, 0x00, 0x00, 0x00, 0x00
0004f8 0000
0004f9 0000
0004fa 0000
0004fb 0000
0004fc 0000
0004fd 0000
0004fe 0000
0004ff 0000      	.db 0x00, 0x00, 0x00, 0x00, 0x00, 0x00, 0x00, 0x00, 0x00, 0x00, 0x00, 0x00, 0x00, 0x00, 0x00, 0x00
000500 0000
000501 0000
000502 0000
000503 0000
000504 0000
000505 0000
000506 0000
000507 0000      	.db 0x00, 0x00, 0x00, 0x00, 0x00, 0x00, 0x00, 0x00, 0x00, 0x00, 0x00, 0x00, 0x00, 0x00, 0x00, 0x00
000508 0000
000509 0000
00050a 0000
00050b 0000
00050c 0000
00050d 0000
00050e 0000
00050f 0000      	.db 0x00, 0x00, 0x00, 0x00, 0x00, 0x00, 0x00, 0x00, 0x00, 0x00, 0x00, 0x00, 0x00, 0x00, 0x00, 0x00
000510 0000
000511 0000
000512 0000
000513 0000
000514 0000
000515 0000
000516 0000
000517 0000      	.db 0x00, 0x00, 0x00, 0x00, 0x00, 0x00, 0x00, 0x00, 0x00, 0x00, 0x00, 0x00, 0x00, 0x00, 0x00, 0x00
000518 0000
000519 0000
00051a 0000
00051b 0000
00051c 0000
00051d 0000
00051e 0000
00051f 0000      	.db 0x00, 0x00, 0x00, 0x00, 0x00, 0x00, 0x00, 0x00, 0x00, 0x00, 0x00, 0x00, 0x00, 0x00, 0x00, 0x00
000520 0000
000521 0000
000522 0000
000523 0000
000524 0000
000525 0000
000526 0000
000527 0000      	.db 0x00, 0x00, 0x00, 0x00, 0x00, 0x00, 0x00, 0x00, 0x00, 0x00, 0x00, 0x00, 0x00, 0x00, 0x00, 0x00
000528 0000
000529 0000
00052a 0000
00052b 0000
00052c 0000
00052d 0000
00052e 0000
00052f 0000      	.db 0x00, 0x00, 0x00, 0x00, 0x00, 0x00, 0x00, 0x00, 0x00, 0x00, 0x00, 0x00, 0x00, 0x00, 0x00, 0x00
000530 0000
000531 0000
000532 0000
000533 0000
000534 0000
000535 0000
000536 0000
000537 0000      	.db 0x00, 0x00, 0x00, 0x00, 0x00, 0x00, 0x00, 0x00, 0x00, 0x00, 0x00, 0x00, 0x00, 0x00, 0x00, 0x00
000538 0000
000539 0000
00053a 0000
00053b 0000
00053c 0000
00053d 0000
00053e 0000
00053f 0000      	.db 0x00, 0x00, 0x00, 0x00, 0x00, 0x00, 0x00, 0x00, 0x00, 0x00, 0x00, 0x00, 0x00, 0x00, 0x00, 0x00
000540 0000
000541 0000
000542 0000
000543 0000
000544 0000
000545 0000
000546 0000
000547 0000      	.db 0x00, 0x00, 0x00, 0x00, 0x00, 0x00, 0x00, 0x00, 0x00, 0x00, 0x00, 0x00, 0x00, 0x00, 0x00, 0x00
000548 0000
000549 0000
00054a 0000
00054b 0000
00054c 0000
00054d 0000
00054e 0000
00054f 0000      	.db 0x00, 0x00, 0x00, 0x00, 0x00, 0x00, 0x00, 0x00, 0x00, 0x00, 0x00, 0x00, 0x00, 0x00, 0x00, 0x00
000550 0000
000551 0000
000552 0000
000553 0000
000554 0000
000555 0000
000556 0000
000557 0000      	.db 0x00, 0x00, 0x00, 0x00, 0x00, 0x00, 0x00, 0x00, 0x00, 0x00, 0x00, 0x00, 0x00, 0x00, 0x00, 0x00
000558 0000
000559 0000
00055a 0000
00055b 0000
00055c 0000
00055d 0000
00055e 0000
00055f 0000      	.db 0x00, 0x00, 0x00, 0x00, 0x00, 0x00, 0x00, 0x00, 0x00, 0x00, 0x00, 0x00, 0x00, 0x00, 0x00, 0x00
000560 0000
000561 0000
000562 0000
000563 0000
000564 0000
000565 0000
000566 0000
000567 0000      	.db 0x00, 0x00, 0x00, 0x00, 0x00, 0x00, 0x00, 0x00, 0x00, 0x00, 0x00, 0x00, 0x00, 0x00, 0x00, 0x00
                 
                 Numeros:
                 
000568 0000
000569 0000
00056a 0000
00056b 0000
00056c 0000
00056d 0000
00056e 0000
00056f 8000      	.db 0x00, 0x00, 0x00, 0x00, 0x00, 0x00, 0x00, 0x00, 0x00, 0x00, 0x00, 0x00, 0x00, 0x00, 0x00, 0x80
000570 4080
000571 f860
000572 00f8
000573 0000
000574 0000
000575 0000
000576 0000
000577 0000      	.db 0x80, 0x40, 0x60, 0xF8, 0xF8, 0x00, 0x00, 0x00, 0x00, 0x00, 0x00, 0x00, 0x00, 0x00, 0x00, 0x00
000578 0000
000579 0000
00057a 0000
00057b 0000
00057c ffff
00057d 0000
00057e 0000
00057f 0000      	.db 0x00, 0x00, 0x00, 0x00, 0x00, 0x00, 0x00, 0x00, 0xFF, 0xFF, 0x00, 0x00, 0x00, 0x00, 0x00, 0x00
000580 0000
000581 0000
000582 0000
000583 0000
000584 0000
000585 3000
000586 0818
000587 0808      	.db 0x00, 0x00, 0x00, 0x00, 0x00, 0x00, 0x00, 0x00, 0x00, 0x00, 0x00, 0x30, 0x18, 0x08, 0x08, 0x08
000588 f808
000589 00f0
00058a 0000
00058b 0000
00058c 0000
00058d 0000
00058e 0000
00058f 0000      	.db 0x08, 0xF8, 0xF0, 0x00, 0x00, 0x00, 0x00, 0x00, 0x00, 0x00, 0x00, 0x00, 0x00, 0x00, 0x00, 0x00
000590 0000
000591 0000
000592 ffff
000593 0000
000594 0000
000595 0000
000596 0000
000597 0000      	.db 0x00, 0x00, 0x00, 0x00, 0xFF, 0xFF, 0x00, 0x00, 0x00, 0x00, 0x00, 0x00, 0x00, 0x00, 0x00, 0x00
000598 0000
000599 0000
00059a 0000
00059b 3000
00059c 0818
00059d 0808
00059e f098
00059f 0060      	.db 0x00, 0x00, 0x00, 0x00, 0x00, 0x00, 0x00, 0x30, 0x18, 0x08, 0x08, 0x08, 0x98, 0xF0, 0x60, 0x00
0005a0 0000
0005a1 0000
0005a2 0000
0005a3 0000
0005a4 0000
0005a5 0000
0005a6 0000
0005a7 0000      	.db 0x00, 0x00, 0x00, 0x00, 0x00, 0x00, 0x00, 0x00, 0x00, 0x00, 0x00, 0x00, 0x00, 0x00, 0x00, 0x00
0005a8 0000
0005a9 0000
0005aa 0000
0005ab 0000
0005ac 0000
0005ad 0000
0005ae 0000
0005af 0000      	.db 0x00, 0x00, 0x00, 0x00, 0x00, 0x00, 0x00, 0x00, 0x00, 0x00, 0x00, 0x00, 0x00, 0x00, 0x00, 0x00
0005b0 0000
0005b1 ff00
0005b2 00ff
0005b3 0000
0005b4 0000
0005b5 0000
0005b6 0000
0005b7 0000      	.db 0x00, 0x00, 0x00, 0xFF, 0xFF, 0x00, 0x00, 0x00, 0x00, 0x00, 0x00, 0x00, 0x00, 0x00, 0x00, 0x00
0005b8 0000
0005b9 0000
0005ba 0000
0005bb 0000
0005bc ffff
0005bd 0000
0005be 0000
0005bf 0000      	.db 0x00, 0x00, 0x00, 0x00, 0x00, 0x00, 0x00, 0x00, 0xFF, 0xFF, 0x00, 0x00, 0x00, 0x00, 0x00, 0x00
0005c0 0000
0005c1 0000
0005c2 0000
0005c3 0000
0005c4 0000
0005c5 c000
0005c6 f0e0
0005c7 8c98      	.db 0x00, 0x00, 0x00, 0x00, 0x00, 0x00, 0x00, 0x00, 0x00, 0x00, 0x00, 0xC0, 0xE0, 0xF0, 0x98, 0x8C
0005c8 8386
0005c9 0081
0005ca 0000
0005cb 0000
0005cc 0000
0005cd 0000
0005ce 0000
0005cf 0000      	.db 0x86, 0x83, 0x81, 0x00, 0x00, 0x00, 0x00, 0x00, 0x00, 0x00, 0x00, 0x00, 0x00, 0x00, 0x00, 0x00
0005d0 0000
0005d1 0000
0005d2 ffff
0005d3 0000
0005d4 0000
0005d5 0000
0005d6 0000
0005d7 0000      	.db 0x00, 0x00, 0x00, 0x00, 0xFF, 0xFF, 0x00, 0x00, 0x00, 0x00, 0x00, 0x00, 0x00, 0x00, 0x00, 0x00
0005d8 0000
0005d9 0000
0005da 0000
0005db 6000
0005dc 80c0
0005dd 8383
0005de fc83
0005df 007c      	.db 0x00, 0x00, 0x00, 0x00, 0x00, 0x00, 0x00, 0x60, 0xC0, 0x80, 0x83, 0x83, 0x83, 0xFC, 0x7C, 0x00
0005e0 0000
0005e1 0000
0005e2 0000
0005e3 0000
0005e4 0000
0005e5 0000
0005e6 0000
0005e7 0000      	.db 0x00, 0x00, 0x00, 0x00, 0x00, 0x00, 0x00, 0x00, 0x00, 0x00, 0x00, 0x00, 0x00, 0x00, 0x00, 0x00
0005e8 3030
0005e9 3030
0005ea 3030
0005eb 3030
0005ec 3030
0005ed 3030
0005ee 3030
0005ef 3030      	.db 0x30, 0x30, 0x30, 0x30, 0x30, 0x30, 0x30, 0x30, 0x30, 0x30, 0x30, 0x30, 0x30, 0x30, 0x30, 0x30
0005f0 3030
0005f1 3330
0005f2 3033
0005f3 3030
0005f4 3030
0005f5 3030
0005f6 3030
0005f7 3030      	.db 0x30, 0x30, 0x30, 0x33, 0x33, 0x30, 0x30, 0x30, 0x30, 0x30, 0x30, 0x30, 0x30, 0x30, 0x30, 0x30
0005f8 3030
0005f9 3030
0005fa 3030
0005fb 3030
0005fc ffff
0005fd 3030
0005fe 3030
0005ff 3030      	.db 0x30, 0x30, 0x30, 0x30, 0x30, 0x30, 0x30, 0x30, 0xFF, 0xFF, 0x30, 0x30, 0x30, 0x30, 0x30, 0x30
000600 3030
000601 3030
000602 3030
000603 3030
000604 3030
000605 3131
000606 3131
000607 3131      	.db 0x30, 0x30, 0x30, 0x30, 0x30, 0x30, 0x30, 0x30, 0x30, 0x30, 0x31, 0x31, 0x31, 0x31, 0x31, 0x31
000608 3131
000609 3031
00060a 3030
00060b 3030
00060c 3030
00060d 3030
00060e 3030
00060f 3030      	.db 0x31, 0x31, 0x31, 0x30, 0x30, 0x30, 0x30, 0x30, 0x30, 0x30, 0x30, 0x30, 0x30, 0x30, 0x30, 0x30
000610 3030
000611 3030
000612 ffff
000613 3030
000614 3030
000615 3030
000616 3030
000617 3030      	.db 0x30, 0x30, 0x30, 0x30, 0xFF, 0xFF, 0x30, 0x30, 0x30, 0x30, 0x30, 0x30, 0x30, 0x30, 0x30, 0x30
000618 3030
000619 3030
00061a 3030
00061b 3030
00061c 3030
00061d 3030
00061e 3030
00061f 3030      	.db 0x30, 0x30, 0x30, 0x30, 0x30, 0x30, 0x30, 0x30, 0x30, 0x30, 0x30, 0x30, 0x30, 0x30, 0x30, 0x30
000620 3030
000621 3030
000622 3030
000623 3030
000624 3030
000625 3030
000626 3030
000627 3030      	.db 0x30, 0x30, 0x30, 0x30, 0x30, 0x30, 0x30, 0x30, 0x30, 0x30, 0x30, 0x30, 0x30, 0x30, 0x30, 0x30
000628 0000
000629 0000
00062a 0000
00062b 0000
00062c 0000
00062d 0000
00062e 0000
00062f 0000      	.db 0x00, 0x00, 0x00, 0x00, 0x00, 0x00, 0x00, 0x00, 0x00, 0x00, 0x00, 0x00, 0x00, 0x00, 0x00, 0x00
000630 20c0
000631 0c18
000632 ffff
000633 0000
000634 0000
000635 0000
000636 0000
000637 0000      	.db 0xC0, 0x20, 0x18, 0x0C, 0xFF, 0xFF, 0x00, 0x00, 0x00, 0x00, 0x00, 0x00, 0x00, 0x00, 0x00, 0x00
000638 0000
000639 0000
00063a 0000
00063b 0000
00063c ffff
00063d 0000
00063e 0000
00063f 0000      	.db 0x00, 0x00, 0x00, 0x00, 0x00, 0x00, 0x00, 0x00, 0xFF, 0xFF, 0x00, 0x00, 0x00, 0x00, 0x00, 0x00
000640 0000
000641 0000
000642 0000
000643 0000
000644 0000
000645 7000
000646 437f
000647 6363      	.db 0x00, 0x00, 0x00, 0x00, 0x00, 0x00, 0x00, 0x00, 0x00, 0x00, 0x00, 0x70, 0x7F, 0x43, 0x63, 0x63
000648 c363
000649 0083
00064a 0000
00064b 0000
00064c 0000
00064d 0000
00064e 0000
00064f 0000      	.db 0x63, 0xC3, 0x83, 0x00, 0x00, 0x00, 0x00, 0x00, 0x00, 0x00, 0x00, 0x00, 0x00, 0x00, 0x00, 0x00
000650 0000
000651 0000
000652 ffff
000653 0000
000654 0000
000655 0000
000656 0000
000657 0000      	.db 0x00, 0x00, 0x00, 0x00, 0xFF, 0xFF, 0x00, 0x00, 0x00, 0x00, 0x00, 0x00, 0x00, 0x00, 0x00, 0x00
000658 0000
000659 0000
00065a 0000
00065b f8c0
00065c 029c
00065d 4242
00065e c642
00065f 0084      	.db 0x00, 0x00, 0x00, 0x00, 0x00, 0x00, 0xC0, 0xF8, 0x9C, 0x02, 0x42, 0x42, 0x42, 0xC6, 0x84, 0x00
000660 0000
000661 0000
000662 0000
000663 0000
000664 0000
000665 0000
000666 0000
000667 0000      	.db 0x00, 0x00, 0x00, 0x00, 0x00, 0x00, 0x00, 0x00, 0x00, 0x00, 0x00, 0x00, 0x00, 0x00, 0x00, 0x00
000668 0000
000669 0000
00066a 0000
00066b 0000
00066c 0000
00066d 0000
00066e 0000
00066f 0f0e      	.db 0x00, 0x00, 0x00, 0x00, 0x00, 0x00, 0x00, 0x00, 0x00, 0x00, 0x00, 0x00, 0x00, 0x00, 0x0E, 0x0F
000670 0c0c
000671 0c0c
000672 7f7f
000673 0c0c
000674 0000
000675 0000
000676 0000
000677 0000      	.db	0x0C, 0x0C, 0x0C, 0x0C, 0x7F, 0x7F, 0x0C, 0x0C, 0x00, 0x00, 0x00, 0x00, 0x00, 0x00, 0x00, 0x00
000678 0000
000679 0000
00067a 0000
00067b 0000
00067c ffff
00067d 0000
00067e 0000
00067f 0000      	.db 0x00, 0x00, 0x00, 0x00, 0x00, 0x00, 0x00, 0x00, 0xFF, 0xFF, 0x00, 0x00, 0x00, 0x00, 0x00, 0x00
000680 0000
000681 0000
000682 0000
000683 0000
000684 0000
000685 1800
000686 2038
000687 2020      	.db 0x00, 0x00, 0x00, 0x00, 0x00, 0x00, 0x00, 0x00, 0x00, 0x00, 0x00, 0x18, 0x38, 0x20, 0x20, 0x20
000688 3020
000689 061f
00068a 0000
00068b 0000
00068c 0000
00068d 0000
00068e 0000
00068f 0000      	.db 0x20, 0x30, 0x1F, 0x06, 0x00, 0x00, 0x00, 0x00, 0x00, 0x00, 0x00, 0x00, 0x00, 0x00, 0x00, 0x00
000690 0000
000691 0000
000692 ffff
000693 0000
000694 0000
000695 0000
000696 0000
000697 0000      	.db 0x00, 0x00, 0x00, 0x00, 0xFF, 0xFF, 0x00, 0x00, 0x00, 0x00, 0x00, 0x00, 0x00, 0x00, 0x00, 0x00
000698 0000
000699 0000
00069a 0000
00069b 0f01
00069c 301f
00069d 2020
00069e 3020
00069f 061f      	.db 0x00, 0x00, 0x00, 0x00, 0x00, 0x00, 0x01, 0x0F, 0x1F, 0x30, 0x20, 0x20, 0x20, 0x30, 0x1F, 0x06
0006a0 0000
0006a1 0000
0006a2 0000
0006a3 0000
0006a4 0000
0006a5 0000
0006a6 0000
0006a7 0000      	.db 0x00, 0x00, 0x00, 0x00, 0x00, 0x00, 0x00, 0x00, 0x00, 0x00, 0x00, 0x00, 0x00, 0x00, 0x00, 0x00
0006a8 0404
0006a9 0404
0006aa 0404
0006ab 0404
0006ac 0404
0006ad 0404
0006ae 0404
0006af c4c4      	.db 0x04, 0x04, 0x04, 0x04, 0x04, 0x04, 0x04, 0x04, 0x04, 0x04, 0x04, 0x04, 0x04, 0x04, 0xC4, 0xC4
0006b0 c4c4
0006b1 c4c4
0006b2 c4c4
0006b3 04c4
0006b4 0404
0006b5 0404
0006b6 0404
0006b7 0404      	.db 0xC4, 0xC4, 0xC4, 0xC4, 0xC4, 0xC4, 0xC4, 0x04, 0x04, 0x04, 0x04, 0x04, 0x04, 0x04, 0x04, 0x04
0006b8 0404
0006b9 0404
0006ba 0404
0006bb 0404
0006bc ffff
0006bd 0404
0006be 0404
0006bf 0404      	.db 0x04, 0x04, 0x04, 0x04, 0x04, 0x04, 0x04, 0x04, 0xFF, 0xFF, 0x04, 0x04, 0x04, 0x04, 0x04, 0x04
0006c0 0404
0006c1 0404
0006c2 0404
0006c3 0404
0006c4 0404
0006c5 0404
0006c6 0404
0006c7 0404      	.db 0x04, 0x04, 0x04, 0x04, 0x04, 0x04, 0x04, 0x04, 0x04, 0x04, 0x04, 0x04, 0x04, 0x04, 0x04, 0x04
0006c8 0404
0006c9 0404
0006ca 0404
0006cb 0404
0006cc 0404
0006cd 0404
0006ce 0404
0006cf 0404      	.db 0x04, 0x04, 0x04, 0x04, 0x04, 0x04, 0x04, 0x04, 0x04, 0x04, 0x04, 0x04, 0x04, 0x04, 0x04, 0x04
0006d0 0404
0006d1 0404
0006d2 ffff
0006d3 0404
0006d4 0404
0006d5 0404
0006d6 0404
0006d7 0404      	.db 0x04, 0x04, 0x04, 0x04, 0xFF, 0xFF, 0x04, 0x04, 0x04, 0x04, 0x04, 0x04, 0x04, 0x04, 0x04, 0x04
0006d8 0404
0006d9 0404
0006da 0404
0006db 0404
0006dc 8484
0006dd 8484
0006de 0484
0006df 0404      	.db 0x04, 0x04, 0x04, 0x04, 0x04, 0x04, 0x04, 0x04, 0x84, 0x84, 0x84, 0x84, 0x84, 0x04, 0x04, 0x04
0006e0 0404
0006e1 0404
0006e2 0404
0006e3 0404
0006e4 0404
0006e5 0404
0006e6 0404
0006e7 0404      	.db 0x04, 0x04, 0x04, 0x04, 0x04, 0x04, 0x04, 0x04, 0x04, 0x04, 0x04, 0x04, 0x04, 0x04, 0x04, 0x04
0006e8 0000
0006e9 0000
0006ea 0000
0006eb 0000
0006ec 0000
0006ed 0000
0006ee 0000
0006ef 0000      	.db 0x00, 0x00, 0x00, 0x00, 0x00, 0x00, 0x00, 0x00, 0x00, 0x00, 0x00, 0x00, 0x00, 0x00, 0x00, 0x00
0006f0 0000
0006f1 38e0
0006f2 030c
0006f3 0001
0006f4 0000
0006f5 0000
0006f6 0000
0006f7 0000      	.db 0x00, 0x00, 0xE0, 0x38, 0x0C, 0x03, 0x01, 0x00, 0x00, 0x00, 0x00, 0x00, 0x00, 0x00, 0x00, 0x00
0006f8 0000
0006f9 0000
0006fa 0000
0006fb 0000
0006fc ffff
0006fd 0000
0006fe 0000
0006ff 0000      	.db 0x00, 0x00, 0x00, 0x00, 0x00, 0x00, 0x00, 0x00, 0xFF, 0xFF, 0x00, 0x00, 0x00, 0x00, 0x00, 0x00
000700 0000
000701 0000
000702 0000
000703 0000
000704 0000
000705 8e00
000706 61df
000707 6161      	.db 0x00, 0x00, 0x00, 0x00, 0x00, 0x00, 0x00, 0x00, 0x00, 0x00, 0x00, 0x8E, 0xDF, 0x61, 0x61, 0x61
000708 9f61
000709 008e
00070a 0000
00070b 0000
00070c 0000
00070d 0000
00070e 0000
00070f 0000      	.db 0x61, 0x9F, 0x8E, 0x00, 0x00, 0x00, 0x00, 0x00, 0x00, 0x00, 0x00, 0x00, 0x00, 0x00, 0x00, 0x00
000710 0000
000711 0000
000712 ffff
000713 0000
000714 0000
000715 0000
000716 0000
000717 0000      	.db 0x00, 0x00, 0x00, 0x00, 0xFF, 0xFF, 0x00, 0x00, 0x00, 0x00, 0x00, 0x00, 0x00, 0x00, 0x00, 0x00
000718 0000
000719 0000
00071a 0000
00071b 3f1e
00071c 4061
00071d 4040
00071e ff01
00071f 00fe      	.db 0x00, 0x00, 0x00, 0x00, 0x00, 0x00, 0x1E, 0x3F, 0x61, 0x40, 0x40, 0x40, 0x01, 0xFF, 0xFE, 0x00
000720 0000
000721 0000
000722 0000
000723 0000
000724 0000
000725 0000
000726 0000
000727 0000      	.db 0x00, 0x00, 0x00, 0x00, 0x00, 0x00, 0x00, 0x00, 0x00, 0x00, 0x00, 0x00, 0x00, 0x00, 0x00, 0x00
000728 0000
000729 0000
00072a 0000
00072b 0000
00072c 0000
00072d 0000
00072e 0000
00072f 0000      	.db 0x00, 0x00, 0x00, 0x00, 0x00, 0x00, 0x00, 0x00, 0x00, 0x00, 0x00, 0x00, 0x00, 0x00, 0x00, 0x00
000730 1f10
000731 0003
000732 0000
000733 0000
000734 0000
000735 0000
000736 0000
000737 0000      	.db 0x10, 0x1F, 0x03, 0x00, 0x00, 0x00, 0x00, 0x00, 0x00, 0x00, 0x00, 0x00, 0x00, 0x00, 0x00, 0x00
000738 0000
000739 0000
00073a 0000
00073b 0000
00073c ffff
00073d 0000
00073e 0000
00073f 0000      	.db 0x00, 0x00, 0x00, 0x00, 0x00, 0x00, 0x00, 0x00, 0xFF, 0xFF, 0x00, 0x00, 0x00, 0x00, 0x00, 0x00
000740 0000
000741 0000
000742 0000
000743 0000
000744 0000
000745 0f02
000746 1018
000747 1010      	.db 0x00, 0x00, 0x00, 0x00, 0x00, 0x00, 0x00, 0x00, 0x00, 0x00, 0x02, 0x0F, 0x18, 0x10, 0x10, 0x10
000748 1f10
000749 000f
00074a 0000
00074b 0000
00074c 0000
00074d 0000
00074e 0000
00074f 0000      	.db 0x10, 0x1F, 0x0F, 0x00, 0x00, 0x00, 0x00, 0x00, 0x00, 0x00, 0x00, 0x00, 0x00, 0x00, 0x00, 0x00
000750 0000
000751 0000
000752 ffff
000753 0000
000754 0000
000755 0000
000756 0000
000757 0000      	.db 0x00, 0x00, 0x00, 0x00, 0xFF, 0xFF, 0x00, 0x00, 0x00, 0x00, 0x00, 0x00, 0x00, 0x00, 0x00, 0x00
000758 0000
000759 0000
00075a 0000
00075b 0400
00075c 080c
00075d 0808
00075e 070c
00075f 0003      	.db 0x00, 0x00, 0x00, 0x00, 0x00, 0x00, 0x00, 0x04, 0x0C, 0x08, 0x08, 0x08, 0x0C, 0x07, 0x03, 0x00
000760 0000
000761 0000
000762 0000
000763 0000
000764 0000
000765 0000
000766 0000
000767 0000      	.db 0x00, 0x00, 0x00, 0x00, 0x00, 0x00, 0x00, 0x00, 0x00, 0x00, 0x00, 0x00, 0x00, 0x00, 0x00, 0x00
                 
                 Blanco:
                 
000768 0000
000769 0000
00076a 0000
00076b 0000
00076c 0000
00076d 0000
00076e 0000
00076f 0000      	.db 0x00, 0x00, 0x00, 0x00, 0x00, 0x00, 0x00, 0x00, 0x00, 0x00, 0x00, 0x00, 0x00, 0x00, 0x00, 0x00
000770 0000
000771 0000
000772 0000
000773 0000
000774 0000
000775 0000
000776 0000
000777 0000      	.db 0x00, 0x00, 0x00, 0x00, 0x00, 0x00, 0x00, 0x00, 0x00, 0x00, 0x00, 0x00, 0x00, 0x00, 0x00, 0x00
000778 0000
000779 0000
00077a 0000
00077b 0000
00077c 0000
00077d 0000
00077e 0000
00077f 0000      	.db 0x00, 0x00, 0x00, 0x00, 0x00, 0x00, 0x00, 0x00, 0x00, 0x00, 0x00, 0x00, 0x00, 0x00, 0x00, 0x00
000780 0000
000781 0000
000782 0000
000783 0000
000784 0000
000785 0000
000786 0000
000787 0000      	.db 0x00, 0x00, 0x00, 0x00, 0x00, 0x00, 0x00, 0x00, 0x00, 0x00, 0x00, 0x00, 0x00, 0x00, 0x00, 0x00
000788 0000
000789 0000
00078a 0000
00078b 0000
00078c 0000
00078d 0000
00078e 0000
00078f 0000      	.db 0x00, 0x00, 0x00, 0x00, 0x00, 0x00, 0x00, 0x00, 0x00, 0x00, 0x00, 0x00, 0x00, 0x00, 0x00, 0x00
000790 0000
000791 0000
000792 0000
000793 0000
000794 0000
000795 0000
000796 0000
000797 0000      	.db 0x00, 0x00, 0x00, 0x00, 0x00, 0x00, 0x00, 0x00, 0x00, 0x00, 0x00, 0x00, 0x00, 0x00, 0x00, 0x00
000798 0000
000799 0000
00079a 0000
00079b 0000
00079c 0000
00079d 0000
00079e 0000
00079f 0000      	.db 0x00, 0x00, 0x00, 0x00, 0x00, 0x00, 0x00, 0x00, 0x00, 0x00, 0x00, 0x00, 0x00, 0x00, 0x00, 0x00
0007a0 0000
0007a1 0000
0007a2 0000
0007a3 0000
0007a4 0000
0007a5 0000
0007a6 0000
0007a7 0000      	.db 0x00, 0x00, 0x00, 0x00, 0x00, 0x00, 0x00, 0x00, 0x00, 0x00, 0x00, 0x00, 0x00, 0x00, 0x00, 0x00
0007a8 0000
0007a9 0000
0007aa 0000
0007ab 0000
0007ac 0000
0007ad 0000
0007ae 0000
0007af 0000      	.db 0x00, 0x00, 0x00, 0x00, 0x00, 0x00, 0x00, 0x00, 0x00, 0x00, 0x00, 0x00, 0x00, 0x00, 0x00, 0x00
0007b0 0000
0007b1 0000
0007b2 0000
0007b3 0000
0007b4 0000
0007b5 0000
0007b6 0000
0007b7 0000      	.db 0x00, 0x00, 0x00, 0x00, 0x00, 0x00, 0x00, 0x00, 0x00, 0x00, 0x00, 0x00, 0x00, 0x00, 0x00, 0x00
0007b8 0000
0007b9 0000
0007ba 0000
0007bb 0000
0007bc 0000
0007bd 0000
0007be 0000
0007bf 0000      	.db 0x00, 0x00, 0x00, 0x00, 0x00, 0x00, 0x00, 0x00, 0x00, 0x00, 0x00, 0x00, 0x00, 0x00, 0x00, 0x00
0007c0 0000
0007c1 0000
0007c2 0000
0007c3 0000
0007c4 0000
0007c5 0000
0007c6 0000
0007c7 0000      	.db 0x00, 0x00, 0x00, 0x00, 0x00, 0x00, 0x00, 0x00, 0x00, 0x00, 0x00, 0x00, 0x00, 0x00, 0x00, 0x00
0007c8 0000
0007c9 0000
0007ca 0000
0007cb 0000
0007cc 0000
0007cd 0000
0007ce 0000
0007cf 0000      	.db 0x00, 0x00, 0x00, 0x00, 0x00, 0x00, 0x00, 0x00, 0x00, 0x00, 0x00, 0x00, 0x00, 0x00, 0x00, 0x00
0007d0 0000
0007d1 0000
0007d2 0000
0007d3 0000
0007d4 0000
0007d5 0000
0007d6 0000
0007d7 0000      	.db 0x00, 0x00, 0x00, 0x00, 0x00, 0x00, 0x00, 0x00, 0x00, 0x00, 0x00, 0x00, 0x00, 0x00, 0x00, 0x00
0007d8 0000
0007d9 0000
0007da 0000
0007db 0000
0007dc 0000
0007dd 0000
0007de 0000
0007df 0000      	.db 0x00, 0x00, 0x00, 0x00, 0x00, 0x00, 0x00, 0x00, 0x00, 0x00, 0x00, 0x00, 0x00, 0x00, 0x00, 0x00
0007e0 0000
0007e1 0000
0007e2 0000
0007e3 0000
0007e4 0000
0007e5 0000
0007e6 0000
0007e7 0000      	.db 0x00, 0x00, 0x00, 0x00, 0x00, 0x00, 0x00, 0x00, 0x00, 0x00, 0x00, 0x00, 0x00, 0x00, 0x00, 0x00
0007e8 0000
0007e9 0000
0007ea 0000
0007eb 0000
0007ec 0000
0007ed 0000
0007ee 0000
0007ef 0000      	.db 0x00, 0x00, 0x00, 0x00, 0x00, 0x00, 0x00, 0x00, 0x00, 0x00, 0x00, 0x00, 0x00, 0x00, 0x00, 0x00
0007f0 0000
0007f1 0000
0007f2 0000
0007f3 0000
0007f4 0000
0007f5 0000
0007f6 0000
0007f7 0000      	.db 0x00, 0x00, 0x00, 0x00, 0x00, 0x00, 0x00, 0x00, 0x00, 0x00, 0x00, 0x00, 0x00, 0x00, 0x00, 0x00
0007f8 0000
0007f9 0000
0007fa 0000
0007fb 0000
0007fc 0000
0007fd 0000
0007fe 0000
0007ff 0000      	.db 0x00, 0x00, 0x00, 0x00, 0x00, 0x00, 0x00, 0x00, 0x00, 0x00, 0x00, 0x00, 0x00, 0x00, 0x00, 0x00
000800 0000
000801 0000
000802 0000
000803 0000
000804 0000
000805 0000
000806 0000
000807 0000      	.db 0x00, 0x00, 0x00, 0x00, 0x00, 0x00, 0x00, 0x00, 0x00, 0x00, 0x00, 0x00, 0x00, 0x00, 0x00, 0x00
000808 0000
000809 0000
00080a 0000
00080b 0000
00080c 0000
00080d 0000
00080e 0000
00080f 0000      	.db 0x00, 0x00, 0x00, 0x00, 0x00, 0x00, 0x00, 0x00, 0x00, 0x00, 0x00, 0x00, 0x00, 0x00, 0x00, 0x00
000810 0000
000811 0000
000812 0000
000813 0000
000814 0000
000815 0000
000816 0000
000817 0000      	.db 0x00, 0x00, 0x00, 0x00, 0x00, 0x00, 0x00, 0x00, 0x00, 0x00, 0x00, 0x00, 0x00, 0x00, 0x00, 0x00
000818 0000
000819 0000
00081a 0000
00081b 0000
00081c 0000
00081d 0000
00081e 0000
00081f 0000      	.db 0x00, 0x00, 0x00, 0x00, 0x00, 0x00, 0x00, 0x00, 0x00, 0x00, 0x00, 0x00, 0x00, 0x00, 0x00, 0x00
000820 0000
000821 0000
000822 0000
000823 0000
000824 0000
000825 0000
000826 0000
000827 0000      	.db 0x00, 0x00, 0x00, 0x00, 0x00, 0x00, 0x00, 0x00, 0x00, 0x00, 0x00, 0x00, 0x00, 0x00, 0x00, 0x00
000828 0000
000829 0000
00082a 0000
00082b 0000
00082c 0000
00082d 0000
00082e 0000
00082f 0000      	.db 0x00, 0x00, 0x00, 0x00, 0x00, 0x00, 0x00, 0x00, 0x00, 0x00, 0x00, 0x00, 0x00, 0x00, 0x00, 0x00
000830 0000
000831 0000
000832 0000
000833 0000
000834 0000
000835 0000
000836 0000
000837 0000      	.db 0x00, 0x00, 0x00, 0x00, 0x00, 0x00, 0x00, 0x00, 0x00, 0x00, 0x00, 0x00, 0x00, 0x00, 0x00, 0x00
000838 0000
000839 0000
00083a 0000
00083b 0000
00083c 0000
00083d 0000
00083e 0000
00083f 0000      	.db 0x00, 0x00, 0x00, 0x00, 0x00, 0x00, 0x00, 0x00, 0x00, 0x00, 0x00, 0x00, 0x00, 0x00, 0x00, 0x00
000840 0000
000841 0000
000842 0000
000843 0000
000844 0000
000845 0000
000846 0000
000847 0000      	.db 0x00, 0x00, 0x00, 0x00, 0x00, 0x00, 0x00, 0x00, 0x00, 0x00, 0x00, 0x00, 0x00, 0x00, 0x00, 0x00
000848 0000
000849 0000
00084a 0000
00084b 0000
00084c 0000
00084d 0000
00084e 0000
00084f 0000      	.db 0x00, 0x00, 0x00, 0x00, 0x00, 0x00, 0x00, 0x00, 0x00, 0x00, 0x00, 0x00, 0x00, 0x00, 0x00, 0x00
000850 0000
000851 0000
000852 0000
000853 0000
000854 0000
000855 0000
000856 0000
000857 0000      	.db 0x00, 0x00, 0x00, 0x00, 0x00, 0x00, 0x00, 0x00, 0x00, 0x00, 0x00, 0x00, 0x00, 0x00, 0x00, 0x00
000858 0000
000859 0000
00085a 0000
00085b 0000
00085c 0000
00085d 0000
00085e 0000
00085f 0000      	.db 0x00, 0x00, 0x00, 0x00, 0x00, 0x00, 0x00, 0x00, 0x00, 0x00, 0x00, 0x00, 0x00, 0x00, 0x00, 0x00
000860 0000
000861 0000
000862 0000
000863 0000
000864 0000
000865 0000
000866 0000
000867 0000      	.db 0x00, 0x00, 0x00, 0x00, 0x00, 0x00, 0x00, 0x00, 0x00, 0x00, 0x00, 0x00, 0x00, 0x00, 0x00, 0x00
000868 0000
000869 0000
00086a 0000
00086b 0000
00086c 0000
00086d 0000
00086e 0000
00086f 0000      	.db 0x00, 0x00, 0x00, 0x00, 0x00, 0x00, 0x00, 0x00, 0x00, 0x00, 0x00, 0x00, 0x00, 0x00, 0x00, 0x00
000870 0000
000871 0000
000872 0000
000873 0000
000874 0000
000875 0000
000876 0000
000877 0000      	.db 0x00, 0x00, 0x00, 0x00, 0x00, 0x00, 0x00, 0x00, 0x00, 0x00, 0x00, 0x00, 0x00, 0x00, 0x00, 0x00
000878 0000
000879 0000
00087a 0000
00087b 0000
00087c 0000
00087d 0000
00087e 0000
00087f 0000      	.db 0x00, 0x00, 0x00, 0x00, 0x00, 0x00, 0x00, 0x00, 0x00, 0x00, 0x00, 0x00, 0x00, 0x00, 0x00, 0x00
000880 0000
000881 0000
000882 0000
000883 0000
000884 0000
000885 0000
000886 0000
000887 0000      	.db 0x00, 0x00, 0x00, 0x00, 0x00, 0x00, 0x00, 0x00, 0x00, 0x00, 0x00, 0x00, 0x00, 0x00, 0x00, 0x00
000888 0000
000889 0000
00088a 0000
00088b 0000
00088c 0000
00088d 0000
00088e 0000
00088f 0000      	.db 0x00, 0x00, 0x00, 0x00, 0x00, 0x00, 0x00, 0x00, 0x00, 0x00, 0x00, 0x00, 0x00, 0x00, 0x00, 0x00
000890 0000
000891 0000
000892 0000
000893 0000
000894 0000
000895 0000
000896 0000
000897 0000      	.db 0x00, 0x00, 0x00, 0x00, 0x00, 0x00, 0x00, 0x00, 0x00, 0x00, 0x00, 0x00, 0x00, 0x00, 0x00, 0x00
000898 0000
000899 0000
00089a 0000
00089b 0000
00089c 0000
00089d 0000
00089e 0000
00089f 0000      	.db 0x00, 0x00, 0x00, 0x00, 0x00, 0x00, 0x00, 0x00, 0x00, 0x00, 0x00, 0x00, 0x00, 0x00, 0x00, 0x00
0008a0 0000
0008a1 0000
0008a2 0000
0008a3 0000
0008a4 0000
0008a5 0000
0008a6 0000
0008a7 0000      	.db 0x00, 0x00, 0x00, 0x00, 0x00, 0x00, 0x00, 0x00, 0x00, 0x00, 0x00, 0x00, 0x00, 0x00, 0x00, 0x00
0008a8 0000
0008a9 0000
0008aa 0000
0008ab 0000
0008ac 0000
0008ad 0000
0008ae 0000
0008af 0000      	.db 0x00, 0x00, 0x00, 0x00, 0x00, 0x00, 0x00, 0x00, 0x00, 0x00, 0x00, 0x00, 0x00, 0x00, 0x00, 0x00
0008b0 0000
0008b1 0000
0008b2 0000
0008b3 0000
0008b4 0000
0008b5 0000
0008b6 0000
0008b7 0000      	.db 0x00, 0x00, 0x00, 0x00, 0x00, 0x00, 0x00, 0x00, 0x00, 0x00, 0x00, 0x00, 0x00, 0x00, 0x00, 0x00
0008b8 0000
0008b9 0000
0008ba 0000
0008bb 0000
0008bc 0000
0008bd 0000
0008be 0000
0008bf 0000      	.db 0x00, 0x00, 0x00, 0x00, 0x00, 0x00, 0x00, 0x00, 0x00, 0x00, 0x00, 0x00, 0x00, 0x00, 0x00, 0x00
0008c0 0000
0008c1 0000
0008c2 0000
0008c3 0000
0008c4 0000
0008c5 0000
0008c6 0000
0008c7 0000      	.db 0x00, 0x00, 0x00, 0x00, 0x00, 0x00, 0x00, 0x00, 0x00, 0x00, 0x00, 0x00, 0x00, 0x00, 0x00, 0x00
0008c8 0000
0008c9 0000
0008ca 0000
0008cb 0000
0008cc 0000
0008cd 0000
0008ce 0000
0008cf 0000      	.db 0x00, 0x00, 0x00, 0x00, 0x00, 0x00, 0x00, 0x00, 0x00, 0x00, 0x00, 0x00, 0x00, 0x00, 0x00, 0x00
0008d0 0000
0008d1 0000
0008d2 0000
0008d3 0000
0008d4 0000
0008d5 0000
0008d6 0000
0008d7 0000      	.db 0x00, 0x00, 0x00, 0x00, 0x00, 0x00, 0x00, 0x00, 0x00, 0x00, 0x00, 0x00, 0x00, 0x00, 0x00, 0x00
0008d8 0000
0008d9 0000
0008da 0000
0008db 0000
0008dc 0000
0008dd 0000
0008de 0000
0008df 0000      	.db 0x00, 0x00, 0x00, 0x00, 0x00, 0x00, 0x00, 0x00, 0x00, 0x00, 0x00, 0x00, 0x00, 0x00, 0x00, 0x00
0008e0 0000
0008e1 0000
0008e2 0000
0008e3 0000
0008e4 0000
0008e5 0000
0008e6 0000
0008e7 0000      	.db 0x00, 0x00, 0x00, 0x00, 0x00, 0x00, 0x00, 0x00, 0x00, 0x00, 0x00, 0x00, 0x00, 0x00, 0x00, 0x00
0008e8 0000
0008e9 0000
0008ea 0000
0008eb 0000
0008ec 0000
0008ed 0000
0008ee 0000
0008ef 0000      	.db 0x00, 0x00, 0x00, 0x00, 0x00, 0x00, 0x00, 0x00, 0x00, 0x00, 0x00, 0x00, 0x00, 0x00, 0x00, 0x00
0008f0 0000
0008f1 0000
0008f2 0000
0008f3 0000
0008f4 0000
0008f5 0000
0008f6 0000
0008f7 0000      	.db 0x00, 0x00, 0x00, 0x00, 0x00, 0x00, 0x00, 0x00, 0x00, 0x00, 0x00, 0x00, 0x00, 0x00, 0x00, 0x00
0008f8 0000
0008f9 0000
0008fa 0000
0008fb 0000
0008fc 0000
0008fd 0000
0008fe 0000
0008ff 0000      	.db 0x00, 0x00, 0x00, 0x00, 0x00, 0x00, 0x00, 0x00, 0x00, 0x00, 0x00, 0x00, 0x00, 0x00, 0x00, 0x00
000900 0000
000901 0000
000902 0000
000903 0000
000904 0000
000905 0000
000906 0000
000907 0000      	.db 0x00, 0x00, 0x00, 0x00, 0x00, 0x00, 0x00, 0x00, 0x00, 0x00, 0x00, 0x00, 0x00, 0x00, 0x00, 0x00
000908 0000
000909 0000
00090a 0000
00090b 0000
00090c 0000
00090d 0000
00090e 0000
00090f 0000      	.db 0x00, 0x00, 0x00, 0x00, 0x00, 0x00, 0x00, 0x00, 0x00, 0x00, 0x00, 0x00, 0x00, 0x00, 0x00, 0x00
000910 0000
000911 0000
000912 0000
000913 0000
000914 0000
000915 0000
000916 0000
000917 0000      	.db 0x00, 0x00, 0x00, 0x00, 0x00, 0x00, 0x00, 0x00, 0x00, 0x00, 0x00, 0x00, 0x00, 0x00, 0x00, 0x00
000918 0000
000919 0000
00091a 0000
00091b 0000
00091c 0000
00091d 0000
00091e 0000
00091f 0000      	.db 0x00, 0x00, 0x00, 0x00, 0x00, 0x00, 0x00, 0x00, 0x00, 0x00, 0x00, 0x00, 0x00, 0x00, 0x00, 0x00
000920 0000
000921 0000
000922 0000
000923 0000
000924 0000
000925 0000
000926 0000
000927 0000      	.db 0x00, 0x00, 0x00, 0x00, 0x00, 0x00, 0x00, 0x00, 0x00, 0x00, 0x00, 0x00, 0x00, 0x00, 0x00, 0x00
000928 0000
000929 0000
00092a 0000
00092b 0000
00092c 0000
00092d 0000
00092e 0000
00092f 0000      	.db 0x00, 0x00, 0x00, 0x00, 0x00, 0x00, 0x00, 0x00, 0x00, 0x00, 0x00, 0x00, 0x00, 0x00, 0x00, 0x00
000930 0000
000931 0000
000932 0000
000933 0000
000934 0000
000935 0000
000936 0000
000937 0000      	.db 0x00, 0x00, 0x00, 0x00, 0x00, 0x00, 0x00, 0x00, 0x00, 0x00, 0x00, 0x00, 0x00, 0x00, 0x00, 0x00
000938 0000
000939 0000
00093a 0000
00093b 0000
00093c 0000
00093d 0000
00093e 0000
00093f 0000      	.db 0x00, 0x00, 0x00, 0x00, 0x00, 0x00, 0x00, 0x00, 0x00, 0x00, 0x00, 0x00, 0x00, 0x00, 0x00, 0x00
000940 0000
000941 0000
000942 0000
000943 0000
000944 0000
000945 0000
000946 0000
000947 0000      	.db 0x00, 0x00, 0x00, 0x00, 0x00, 0x00, 0x00, 0x00, 0x00, 0x00, 0x00, 0x00, 0x00, 0x00, 0x00, 0x00
000948 0000
000949 0000
00094a 0000
00094b 0000
00094c 0000
00094d 0000
00094e 0000
00094f 0000      	.db 0x00, 0x00, 0x00, 0x00, 0x00, 0x00, 0x00, 0x00, 0x00, 0x00, 0x00, 0x00, 0x00, 0x00, 0x00, 0x00
000950 0000
000951 0000
000952 0000
000953 0000
000954 0000
000955 0000
000956 0000
000957 0000      	.db 0x00, 0x00, 0x00, 0x00, 0x00, 0x00, 0x00, 0x00, 0x00, 0x00, 0x00, 0x00, 0x00, 0x00, 0x00, 0x00
000958 0000
000959 0000
00095a 0000
00095b 0000
00095c 0000
00095d 0000
00095e 0000
00095f 0000      	.db 0x00, 0x00, 0x00, 0x00, 0x00, 0x00, 0x00, 0x00, 0x00, 0x00, 0x00, 0x00, 0x00, 0x00, 0x00, 0x00
000960 0000
000961 0000
000962 0000
000963 0000
000964 0000
000965 0000
000966 0000
000967 0000      	.db 0x00, 0x00, 0x00, 0x00, 0x00, 0x00, 0x00, 0x00, 0x00, 0x00, 0x00, 0x00, 0x00, 0x00, 0x00, 0x00
                 
                 
                 Numero1:
                 
000968 fefe
000969 fefe
00096a fefe
00096b fefe
00096c fefe
00096d fefe
00096e fefe
00096f fefe      	.db 0xFE, 0xFE, 0xFE, 0xFE, 0xFE, 0xFE, 0xFE, 0xFE, 0xFE, 0xFE, 0xFE, 0xFE, 0xFE, 0xFE, 0xFE, 0xFE
000970 fefe
000971 fefe
000972 fefe
000973 fefe
000974 fefe
000975 fefe
000976 fefe
000977 fefe      	.db 0xFE, 0xFE, 0xFE, 0xFE, 0xFE, 0xFE, 0xFE, 0xFE, 0xFE, 0xFE, 0xFE, 0xFE, 0xFE, 0xFE, 0xFE, 0xFE
000978 fefe
000979 fefe
00097a fefe
00097b fefe
00097c ffff
00097d 0000
00097e 0000
00097f 0000      	.db 0xFE, 0xFE, 0xFE, 0xFE, 0xFE, 0xFE, 0xFE, 0xFE, 0xFF, 0xFF, 0x00, 0x00, 0x00, 0x00, 0x00, 0x00
000980 0000
000981 0000
000982 0000
000983 0000
000984 0000
000985 3000
000986 0818
000987 0808      	.db 0x00, 0x00, 0x00, 0x00, 0x00, 0x00, 0x00, 0x00, 0x00, 0x00, 0x00, 0x30, 0x18, 0x08, 0x08, 0x08
000988 f808
000989 00f0
00098a 0000
00098b 0000
00098c 0000
00098d 0000
00098e 0000
00098f 0000      	.db 0x08, 0xF8, 0xF0, 0x00, 0x00, 0x00, 0x00, 0x00, 0x00, 0x00, 0x00, 0x00, 0x00, 0x00, 0x00, 0x00
000990 0000
000991 0000
000992 ffff
000993 0000
000994 0000
000995 0000
000996 0000
000997 0000      	.db 0x00, 0x00, 0x00, 0x00, 0xFF, 0xFF, 0x00, 0x00, 0x00, 0x00, 0x00, 0x00, 0x00, 0x00, 0x00, 0x00
000998 0000
000999 0000
00099a 0000
00099b 3000
00099c 0818
00099d 0808
00099e f098
00099f 0060      	.db 0x00, 0x00, 0x00, 0x00, 0x00, 0x00, 0x00, 0x30, 0x18, 0x08, 0x08, 0x08, 0x98, 0xF0, 0x60, 0x00
0009a0 0000
0009a1 0000
0009a2 0000
0009a3 0000
0009a4 0000
0009a5 0000
0009a6 0000
0009a7 0000      	.db 0x00, 0x00, 0x00, 0x00, 0x00, 0x00, 0x00, 0x00, 0x00, 0x00, 0x00, 0x00, 0x00, 0x00, 0x00, 0x00
0009a8 ffff
0009a9 ffff
0009aa ffff
0009ab ffff
0009ac ffff
0009ad ffff
0009ae ffff
0009af ffff      	.db 0xFF, 0xFF, 0xFF, 0xFF, 0xFF, 0xFF, 0xFF, 0xFF, 0xFF, 0xFF, 0xFF, 0xFF, 0xFF, 0xFF, 0xFF, 0xFF
0009b0 ffff
0009b1 ffff
0009b2 ffff
0009b3 ffff
0009b4 ffff
0009b5 ffff
0009b6 ffff
0009b7 ffff      	.db 0xFF, 0xFF, 0xFF, 0xFF, 0xFF, 0xFF, 0xFF, 0xFF, 0xFF, 0xFF, 0xFF, 0xFF, 0xFF, 0xFF, 0xFF, 0xFF
0009b8 ffff
0009b9 ffff
0009ba ffff
0009bb ffff
0009bc ffff
0009bd 0000
0009be 0000
0009bf 0000      	.db 0xFF, 0xFF, 0xFF, 0xFF, 0xFF, 0xFF, 0xFF, 0xFF, 0xFF, 0xFF, 0x00, 0x00, 0x00, 0x00, 0x00, 0x00
0009c0 0000
0009c1 0000
0009c2 0000
0009c3 0000
0009c4 0000
0009c5 c000
0009c6 f0e0
0009c7 8c98      	.db 0x00, 0x00, 0x00, 0x00, 0x00, 0x00, 0x00, 0x00, 0x00, 0x00, 0x00, 0xC0, 0xE0, 0xF0, 0x98, 0x8C
0009c8 8386
0009c9 0081
0009ca 0000
0009cb 0000
0009cc 0000
0009cd 0000
0009ce 0000
0009cf 0000      	.db 0x86, 0x83, 0x81, 0x00, 0x00, 0x00, 0x00, 0x00, 0x00, 0x00, 0x00, 0x00, 0x00, 0x00, 0x00, 0x00
0009d0 0000
0009d1 0000
0009d2 ffff
0009d3 0000
0009d4 0000
0009d5 0000
0009d6 0000
0009d7 0000      	.db 0x00, 0x00, 0x00, 0x00, 0xFF, 0xFF, 0x00, 0x00, 0x00, 0x00, 0x00, 0x00, 0x00, 0x00, 0x00, 0x00
0009d8 0000
0009d9 0000
0009da 0000
0009db 6000
0009dc 80c0
0009dd 8383
0009de fc83
0009df 007c      	.db 0x00, 0x00, 0x00, 0x00, 0x00, 0x00, 0x00, 0x60, 0xC0, 0x80, 0x83, 0x83, 0x83, 0xFC, 0x7C, 0x00
0009e0 0000
0009e1 0000
0009e2 0000
0009e3 0000
0009e4 0000
0009e5 0000
0009e6 0000
0009e7 0000      	.db 0x00, 0x00, 0x00, 0x00, 0x00, 0x00, 0x00, 0x00, 0x00, 0x00, 0x00, 0x00, 0x00, 0x00, 0x00, 0x00
0009e8 3f3f
0009e9 3f3f
0009ea 3f3f
0009eb 3f3f
0009ec 3f3f
0009ed 3f3f
0009ee 3f3f
0009ef 3f3f      	.db 0x3F, 0x3F, 0x3F, 0x3F, 0x3F, 0x3F, 0x3F, 0x3F, 0x3F, 0x3F, 0x3F, 0x3F, 0x3F, 0x3F, 0x3F, 0x3F
0009f0 3f3f
0009f1 3f3f
0009f2 3f3f
0009f3 3f3f
0009f4 3f3f
0009f5 3f3f
0009f6 3f3f
0009f7 3f3f      	.db 0x3F, 0x3F, 0x3F, 0x3F, 0x3F, 0x3F, 0x3F, 0x3F, 0x3F, 0x3F, 0x3F, 0x3F, 0x3F, 0x3F, 0x3F, 0x3F
0009f8 3f3f
0009f9 3f3f
0009fa 3f3f
0009fb 3f3f
0009fc ffff
0009fd 3030
0009fe 3030
0009ff 3030      	.db 0x3F, 0x3F, 0x3F, 0x3F, 0x3F, 0x3F, 0x3F, 0x3F, 0xFF, 0xFF, 0x30, 0x30, 0x30, 0x30, 0x30, 0x30
000a00 3030
000a01 3030
000a02 3030
000a03 3030
000a04 3030
000a05 3131
000a06 3131
000a07 3131      	.db 0x30, 0x30, 0x30, 0x30, 0x30, 0x30, 0x30, 0x30, 0x30, 0x30, 0x31, 0x31, 0x31, 0x31, 0x31, 0x31
000a08 3131
000a09 3031
000a0a 3030
000a0b 3030
000a0c 3030
000a0d 3030
000a0e 3030
000a0f 3030      	.db 0x31, 0x31, 0x31, 0x30, 0x30, 0x30, 0x30, 0x30, 0x30, 0x30, 0x30, 0x30, 0x30, 0x30, 0x30, 0x30
000a10 3030
000a11 3030
000a12 ffff
000a13 3030
000a14 3030
000a15 3030
000a16 3030
000a17 3030      	.db 0x30, 0x30, 0x30, 0x30, 0xFF, 0xFF, 0x30, 0x30, 0x30, 0x30, 0x30, 0x30, 0x30, 0x30, 0x30, 0x30
000a18 3030
000a19 3030
000a1a 3030
000a1b 3030
000a1c 3030
000a1d 3030
000a1e 3030
000a1f 3030      	.db 0x30, 0x30, 0x30, 0x30, 0x30, 0x30, 0x30, 0x30, 0x30, 0x30, 0x30, 0x30, 0x30, 0x30, 0x30, 0x30
000a20 3030
000a21 3030
000a22 3030
000a23 3030
000a24 3030
000a25 3030
000a26 3030
000a27 3030      	.db 0x30, 0x30, 0x30, 0x30, 0x30, 0x30, 0x30, 0x30, 0x30, 0x30, 0x30, 0x30, 0x30, 0x30, 0x30, 0x30
000a28 0000
000a29 0000
000a2a 0000
000a2b 0000
000a2c 0000
000a2d 0000
000a2e 0000
000a2f 0000      	.db 0x00, 0x00, 0x00, 0x00, 0x00, 0x00, 0x00, 0x00, 0x00, 0x00, 0x00, 0x00, 0x00, 0x00, 0x00, 0x00
000a30 20c0
000a31 0c18
000a32 ffff
000a33 0000
000a34 0000
000a35 0000
000a36 0000
000a37 0000      	.db 0xC0, 0x20, 0x18, 0x0C, 0xFF, 0xFF, 0x00, 0x00, 0x00, 0x00, 0x00, 0x00, 0x00, 0x00, 0x00, 0x00
000a38 0000
000a39 0000
000a3a 0000
000a3b 0000
000a3c ffff
000a3d 0000
000a3e 0000
000a3f 0000      	.db 0x00, 0x00, 0x00, 0x00, 0x00, 0x00, 0x00, 0x00, 0xFF, 0xFF, 0x00, 0x00, 0x00, 0x00, 0x00, 0x00
000a40 0000
000a41 0000
000a42 0000
000a43 0000
000a44 0000
000a45 7000
000a46 437f
000a47 6363      	.db 0x00, 0x00, 0x00, 0x00, 0x00, 0x00, 0x00, 0x00, 0x00, 0x00, 0x00, 0x70, 0x7F, 0x43, 0x63, 0x63
000a48 c363
000a49 0083
000a4a 0000
000a4b 0000
000a4c 0000
000a4d 0000
000a4e 0000
000a4f 0000      	.db 0x63, 0xC3, 0x83, 0x00, 0x00, 0x00, 0x00, 0x00, 0x00, 0x00, 0x00, 0x00, 0x00, 0x00, 0x00, 0x00
000a50 0000
000a51 0000
000a52 ffff
000a53 0000
000a54 0000
000a55 0000
000a56 0000
000a57 0000      	.db 0x00, 0x00, 0x00, 0x00, 0xFF, 0xFF, 0x00, 0x00, 0x00, 0x00, 0x00, 0x00, 0x00, 0x00, 0x00, 0x00
000a58 0000
000a59 0000
000a5a 0000
000a5b f8c0
000a5c 029c
000a5d 4242
000a5e c642
000a5f 0084      	.db 0x00, 0x00, 0x00, 0x00, 0x00, 0x00, 0xC0, 0xF8, 0x9C, 0x02, 0x42, 0x42, 0x42, 0xC6, 0x84, 0x00
000a60 0000
000a61 0000
000a62 0000
000a63 0000
000a64 0000
000a65 0000
000a66 0000
000a67 0000      	.db 0x00, 0x00, 0x00, 0x00, 0x00, 0x00, 0x00, 0x00, 0x00, 0x00, 0x00, 0x00, 0x00, 0x00, 0x00, 0x00
000a68 0000
000a69 0000
000a6a 0000
000a6b 0000
000a6c 0000
000a6d 0000
000a6e 0000
000a6f 0f0e      	.db 0x00, 0x00, 0x00, 0x00, 0x00, 0x00, 0x00, 0x00, 0x00, 0x00, 0x00, 0x00, 0x00, 0x00, 0x0E, 0x0F
000a70 0c0c
000a71 0c0c
000a72 7f7f
000a73 0c0c
000a74 0000
000a75 0000
000a76 0000
000a77 0000      	.db 0x0C, 0x0C, 0x0C, 0x0C, 0x7F, 0x7F, 0x0C, 0x0C, 0x00, 0x00, 0x00, 0x00, 0x00, 0x00, 0x00, 0x00
000a78 0000
000a79 0000
000a7a 0000
000a7b 0000
000a7c ffff
000a7d 0000
000a7e 0000
000a7f 0000      	.db 0x00, 0x00, 0x00, 0x00, 0x00, 0x00, 0x00, 0x00, 0xFF, 0xFF, 0x00, 0x00, 0x00, 0x00, 0x00, 0x00
000a80 0000
000a81 0000
000a82 0000
000a83 0000
000a84 0000
000a85 1800
000a86 2038
000a87 2020      	.db 0x00, 0x00, 0x00, 0x00, 0x00, 0x00, 0x00, 0x00, 0x00, 0x00, 0x00, 0x18, 0x38, 0x20, 0x20, 0x20
000a88 3020
000a89 061f
000a8a 0000
000a8b 0000
000a8c 0000
000a8d 0000
000a8e 0000
000a8f 0000      	.db 0x20, 0x30, 0x1F, 0x06, 0x00, 0x00, 0x00, 0x00, 0x00, 0x00, 0x00, 0x00, 0x00, 0x00, 0x00, 0x00
000a90 0000
000a91 0000
000a92 ffff
000a93 0000
000a94 0000
000a95 0000
000a96 0000
000a97 0000      	.db 0x00, 0x00, 0x00, 0x00, 0xFF, 0xFF, 0x00, 0x00, 0x00, 0x00, 0x00, 0x00, 0x00, 0x00, 0x00, 0x00
000a98 0000
000a99 0000
000a9a 0000
000a9b 0f01
000a9c 301f
000a9d 2020
000a9e 3020
000a9f 061f      	.db 0x00, 0x00, 0x00, 0x00, 0x00, 0x00, 0x01, 0x0F, 0x1F, 0x30, 0x20, 0x20, 0x20, 0x30, 0x1F, 0x06
000aa0 0000
000aa1 0000
000aa2 0000
000aa3 0000
000aa4 0000
000aa5 0000
000aa6 0000
000aa7 0000      	.db 0x00, 0x00, 0x00, 0x00, 0x00, 0x00, 0x00, 0x00, 0x00, 0x00, 0x00, 0x00, 0x00, 0x00, 0x00, 0x00
000aa8 0404
000aa9 0404
000aaa 0404
000aab 0404
000aac 0404
000aad 0404
000aae 0404
000aaf c4c4      	.db 0x04, 0x04, 0x04, 0x04, 0x04, 0x04, 0x04, 0x04, 0x04, 0x04, 0x04, 0x04, 0x04, 0x04, 0xC4, 0xC4
000ab0 c4c4
000ab1 c4c4
000ab2 c4c4
000ab3 04c4
000ab4 0404
000ab5 0404
000ab6 0404
000ab7 0404      	.db 0xC4, 0xC4, 0xC4, 0xC4, 0xC4, 0xC4, 0xC4, 0x04, 0x04, 0x04, 0x04, 0x04, 0x04, 0x04, 0x04, 0x04
000ab8 0404
000ab9 0404
000aba 0404
000abb 0404
000abc ffff
000abd 0404
000abe 0404
000abf 0404      	.db 0x04, 0x04, 0x04, 0x04, 0x04, 0x04, 0x04, 0x04, 0xFF, 0xFF, 0x04, 0x04, 0x04, 0x04, 0x04, 0x04
000ac0 0404
000ac1 0404
000ac2 0404
000ac3 0404
000ac4 0404
000ac5 0404
000ac6 0404
000ac7 0404      	.db 0x04, 0x04, 0x04, 0x04, 0x04, 0x04, 0x04, 0x04, 0x04, 0x04, 0x04, 0x04, 0x04, 0x04, 0x04, 0x04
000ac8 0404
000ac9 0404
000aca 0404
000acb 0404
000acc 0404
000acd 0404
000ace 0404
000acf 0404      	.db 0x04, 0x04, 0x04, 0x04, 0x04, 0x04, 0x04, 0x04, 0x04, 0x04, 0x04, 0x04, 0x04, 0x04, 0x04, 0x04
000ad0 0404
000ad1 0404
000ad2 ffff
000ad3 0404
000ad4 0404
000ad5 0404
000ad6 0404
000ad7 0404      	.db 0x04, 0x04, 0x04, 0x04, 0xFF, 0xFF, 0x04, 0x04, 0x04, 0x04, 0x04, 0x04, 0x04, 0x04, 0x04, 0x04
000ad8 0404
000ad9 0404
000ada 0404
000adb 0404
000adc 8484
000add 8484
000ade 0484
000adf 0404      	.db 0x04, 0x04, 0x04, 0x04, 0x04, 0x04, 0x04, 0x04, 0x84, 0x84, 0x84, 0x84, 0x84, 0x04, 0x04, 0x04
000ae0 0404
000ae1 0404
000ae2 0404
000ae3 0404
000ae4 0404
000ae5 0404
000ae6 0404
000ae7 0404      	.db 0x04, 0x04, 0x04, 0x04, 0x04, 0x04, 0x04, 0x04, 0x04, 0x04, 0x04, 0x04, 0x04, 0x04, 0x04, 0x04
000ae8 0000
000ae9 0000
000aea 0000
000aeb 0000
000aec 0000
000aed 0000
000aee 0000
000aef 0000      	.db 0x00, 0x00, 0x00, 0x00, 0x00, 0x00, 0x00, 0x00, 0x00, 0x00, 0x00, 0x00, 0x00, 0x00, 0x00, 0x00
000af0 0000
000af1 38e0
000af2 030c
000af3 0001
000af4 0000
000af5 0000
000af6 0000
000af7 0000      	.db 0x00, 0x00, 0xE0, 0x38, 0x0C, 0x03, 0x01, 0x00, 0x00, 0x00, 0x00, 0x00, 0x00, 0x00, 0x00, 0x00
000af8 0000
000af9 0000
000afa 0000
000afb 0000
000afc ffff
000afd 0000
000afe 0000
000aff 0000      	.db 0x00, 0x00, 0x00, 0x00, 0x00, 0x00, 0x00, 0x00, 0xFF, 0xFF, 0x00, 0x00, 0x00, 0x00, 0x00, 0x00
000b00 0000
000b01 0000
000b02 0000
000b03 0000
000b04 0000
000b05 8e00
000b06 61df
000b07 6161      	.db 0x00, 0x00, 0x00, 0x00, 0x00, 0x00, 0x00, 0x00, 0x00, 0x00, 0x00, 0x8E, 0xDF, 0x61, 0x61, 0x61
000b08 9f61
000b09 008e
000b0a 0000
000b0b 0000
000b0c 0000
000b0d 0000
000b0e 0000
000b0f 0000      	.db 0x61, 0x9F, 0x8E, 0x00, 0x00, 0x00, 0x00, 0x00, 0x00, 0x00, 0x00, 0x00, 0x00, 0x00, 0x00, 0x00
000b10 0000
000b11 0000
000b12 ffff
000b13 0000
000b14 0000
000b15 0000
000b16 0000
000b17 0000      	.db 0x00, 0x00, 0x00, 0x00, 0xFF, 0xFF, 0x00, 0x00, 0x00, 0x00, 0x00, 0x00, 0x00, 0x00, 0x00, 0x00
000b18 0000
000b19 0000
000b1a 0000
000b1b 3f1e
000b1c 4061
000b1d 4040
000b1e ff01
000b1f 00fe      	.db 0x00, 0x00, 0x00, 0x00, 0x00, 0x00, 0x1E, 0x3F, 0x61, 0x40, 0x40, 0x40, 0x01, 0xFF, 0xFE, 0x00
000b20 0000
000b21 0000
000b22 0000
000b23 0000
000b24 0000
000b25 0000
000b26 0000
000b27 0000      	.db 0x00, 0x00, 0x00, 0x00, 0x00, 0x00, 0x00, 0x00, 0x00, 0x00, 0x00, 0x00, 0x00, 0x00, 0x00, 0x00
000b28 0000
000b29 0000
000b2a 0000
000b2b 0000
000b2c 0000
000b2d 0000
000b2e 0000
000b2f 0000      	.db 0x00, 0x00, 0x00, 0x00, 0x00, 0x00, 0x00, 0x00, 0x00, 0x00, 0x00, 0x00, 0x00, 0x00, 0x00, 0x00
000b30 1f10
000b31 0003
000b32 0000
000b33 0000
000b34 0000
000b35 0000
000b36 0000
000b37 0000      	.db 0x10, 0x1F, 0x03, 0x00, 0x00, 0x00, 0x00, 0x00, 0x00, 0x00, 0x00, 0x00, 0x00, 0x00, 0x00, 0x00
000b38 0000
000b39 0000
000b3a 0000
000b3b 0000
000b3c ffff
000b3d 0000
000b3e 0000
000b3f 0000      	.db 0x00, 0x00, 0x00, 0x00, 0x00, 0x00, 0x00, 0x00, 0xFF, 0xFF, 0x00, 0x00, 0x00, 0x00, 0x00, 0x00
000b40 0000
000b41 0000
000b42 0000
000b43 0000
000b44 0000
000b45 0f02
000b46 1018
000b47 1010      	.db 0x00, 0x00, 0x00, 0x00, 0x00, 0x00, 0x00, 0x00, 0x00, 0x00, 0x02, 0x0F, 0x18, 0x10, 0x10, 0x10
000b48 1f10
000b49 000f
000b4a 0000
000b4b 0000
000b4c 0000
000b4d 0000
000b4e 0000
000b4f 0000      	.db 0x10, 0x1F, 0x0F, 0x00, 0x00, 0x00, 0x00, 0x00, 0x00, 0x00, 0x00, 0x00, 0x00, 0x00, 0x00, 0x00
000b50 0000
000b51 0000
000b52 ffff
000b53 0000
000b54 0000
000b55 0000
000b56 0000
000b57 0000      	.db 0x00, 0x00, 0x00, 0x00, 0xFF, 0xFF, 0x00, 0x00, 0x00, 0x00, 0x00, 0x00, 0x00, 0x00, 0x00, 0x00
000b58 0000
000b59 0000
000b5a 0000
000b5b 0400
000b5c 080c
000b5d 0808
000b5e 070c
000b5f 0003      	.db 0x00, 0x00, 0x00, 0x00, 0x00, 0x00, 0x00, 0x04, 0x0C, 0x08, 0x08, 0x08, 0x0C, 0x07, 0x03, 0x00
000b60 0000
000b61 0000
000b62 0000
000b63 0000
000b64 0000
000b65 0000
000b66 0000
000b67 0000      	.db 0x00, 0x00, 0x00, 0x00, 0x00, 0x00, 0x00, 0x00, 0x00, 0x00, 0x00, 0x00, 0x00, 0x00, 0x00, 0x00
                 
                 Numero2:
                 
000b68 0000
000b69 0000
000b6a 0000
000b6b 0000
000b6c 0000
000b6d 0000
000b6e 0000
000b6f 8000      	.db 0x00, 0x00, 0x00, 0x00, 0x00, 0x00, 0x00, 0x00, 0x00, 0x00, 0x00, 0x00, 0x00, 0x00, 0x00, 0x80
000b70 4080
000b71 f860
000b72 00f8
000b73 0000
000b74 0000
000b75 0000
000b76 0000
000b77 0000      	.db 0x80, 0x40, 0x60, 0xF8, 0xF8, 0x00, 0x00, 0x00, 0x00, 0x00, 0x00, 0x00, 0x00, 0x00, 0x00, 0x00
000b78 0000
000b79 0000
000b7a 0000
000b7b 0000
000b7c ffff
000b7d fefe
000b7e fefe
000b7f fefe      	.db 0x00, 0x00, 0x00, 0x00, 0x00, 0x00, 0x00, 0x00, 0xFF, 0xFF, 0xFE, 0xFE, 0xFE, 0xFE, 0xFE, 0xFE
000b80 fefe
000b81 fefe
000b82 fefe
000b83 fefe
000b84 fefe
000b85 fefe
000b86 fefe
000b87 fefe      	.db 0xFE, 0xFE, 0xFE, 0xFE, 0xFE, 0xFE, 0xFE, 0xFE, 0xFE, 0xFE, 0xFE, 0xFE, 0xFE, 0xFE, 0xFE, 0xFE
000b88 fefe
000b89 fefe
000b8a fefe
000b8b fefe
000b8c fefe
000b8d fefe
000b8e fefe
000b8f fefe      	.db 0xFE, 0xFE, 0xFE, 0xFE, 0xFE, 0xFE, 0xFE, 0xFE, 0xFE, 0xFE, 0xFE, 0xFE, 0xFE, 0xFE, 0xFE, 0xFE
000b90 fefe
000b91 fefe
000b92 ffff
000b93 0000
000b94 0000
000b95 0000
000b96 0000
000b97 0000      	.db 0xFE, 0xFE, 0xFE, 0xFE, 0xFF, 0xFF, 0x00, 0x00, 0x00, 0x00, 0x00, 0x00, 0x00, 0x00, 0x00, 0x00
000b98 0000
000b99 0000
000b9a 0000
000b9b 3000
000b9c 0818
000b9d 0808
000b9e f098
000b9f 0060      	.db 0x00, 0x00, 0x00, 0x00, 0x00, 0x00, 0x00, 0x30, 0x18, 0x08, 0x08, 0x08, 0x98, 0xF0, 0x60, 0x00
000ba0 0000
000ba1 0000
000ba2 0000
000ba3 0000
000ba4 0000
000ba5 0000
000ba6 0000
000ba7 0000      	.db 0x00, 0x00, 0x00, 0x00, 0x00, 0x00, 0x00, 0x00, 0x00, 0x00, 0x00, 0x00, 0x00, 0x00, 0x00, 0x00
000ba8 0000
000ba9 0000
000baa 0000
000bab 0000
000bac 0000
000bad 0000
000bae 0000
000baf 0000      	.db 0x00, 0x00, 0x00, 0x00, 0x00, 0x00, 0x00, 0x00, 0x00, 0x00, 0x00, 0x00, 0x00, 0x00, 0x00, 0x00
000bb0 0000
000bb1 ff00
000bb2 00ff
000bb3 0000
000bb4 0000
000bb5 0000
000bb6 0000
000bb7 0000      	.db 0x00, 0x00, 0x00, 0xFF, 0xFF, 0x00, 0x00, 0x00, 0x00, 0x00, 0x00, 0x00, 0x00, 0x00, 0x00, 0x00
000bb8 0000
000bb9 0000
000bba 0000
000bbb 0000
000bbc ffff
000bbd ffff
000bbe ffff
000bbf ffff      	.db 0x00, 0x00, 0x00, 0x00, 0x00, 0x00, 0x00, 0x00, 0xFF, 0xFF, 0xFF, 0xFF, 0xFF, 0xFF, 0xFF, 0xFF
000bc0 ffff
000bc1 ffff
000bc2 ffff
000bc3 ffff
000bc4 ffff
000bc5 ffff
000bc6 ffff
000bc7 ffff      	.db 0xFF, 0xFF, 0xFF, 0xFF, 0xFF, 0xFF, 0xFF, 0xFF, 0xFF, 0xFF, 0xFF, 0xFF, 0xFF, 0xFF, 0xFF, 0xFF
000bc8 ffff
000bc9 ffff
000bca ffff
000bcb ffff
000bcc ffff
000bcd ffff
000bce ffff
000bcf ffff      	.db 0xFF, 0xFF, 0xFF, 0xFF, 0xFF, 0xFF, 0xFF, 0xFF, 0xFF, 0xFF, 0xFF, 0xFF, 0xFF, 0xFF, 0xFF, 0xFF
000bd0 ffff
000bd1 ffff
000bd2 ffff
000bd3 0000
000bd4 0000
000bd5 0000
000bd6 0000
000bd7 0000      	.db 0xFF, 0xFF, 0xFF, 0xFF, 0xFF, 0xFF, 0x00, 0x00, 0x00, 0x00, 0x00, 0x00, 0x00, 0x00, 0x00, 0x00
000bd8 0000
000bd9 0000
000bda 0000
000bdb 6000
000bdc 80c0
000bdd 8383
000bde fc83
000bdf 007c      	.db 0x00, 0x00, 0x00, 0x00, 0x00, 0x00, 0x00, 0x60, 0xC0, 0x80, 0x83, 0x83, 0x83, 0xFC, 0x7C, 0x00
000be0 0000
000be1 0000
000be2 0000
000be3 0000
000be4 0000
000be5 0000
000be6 0000
000be7 0000      	.db 0x00, 0x00, 0x00, 0x00, 0x00, 0x00, 0x00, 0x00, 0x00, 0x00, 0x00, 0x00, 0x00, 0x00, 0x00, 0x00
000be8 3030
000be9 3030
000bea 3030
000beb 3030
000bec 3030
000bed 3030
000bee 3030
000bef 3030      	.db 0x30, 0x30, 0x30, 0x30, 0x30, 0x30, 0x30, 0x30, 0x30, 0x30, 0x30, 0x30, 0x30, 0x30, 0x30, 0x30
000bf0 3030
000bf1 3330
000bf2 3033
000bf3 3030
000bf4 3030
000bf5 3030
000bf6 3030
000bf7 3030      	.db 0x30, 0x30, 0x30, 0x33, 0x33, 0x30, 0x30, 0x30, 0x30, 0x30, 0x30, 0x30, 0x30, 0x30, 0x30, 0x30
000bf8 3030
000bf9 3030
000bfa 3030
000bfb 3030
000bfc ffff
000bfd 3f3f
000bfe 3f3f
000bff 3f3f      	.db 0x30, 0x30, 0x30, 0x30, 0x30, 0x30, 0x30, 0x30, 0xFF, 0xFF, 0x3F, 0x3F, 0x3F, 0x3F, 0x3F, 0x3F
000c00 3f3f
000c01 3f3f
000c02 3f3f
000c03 3f3f
000c04 3f3f
000c05 3f3f
000c06 3f3f
000c07 3f3f      	.db 0x3F, 0x3F, 0x3F, 0x3F, 0x3F, 0x3F, 0x3F, 0x3F, 0x3F, 0x3F, 0x3F, 0x3F, 0x3F, 0x3F, 0x3F, 0x3F
000c08 3f3f
000c09 3f3f
000c0a 3f3f
000c0b 3f3f
000c0c 3f3f
000c0d 3f3f
000c0e 3f3f
000c0f 3f3f      	.db 0x3F, 0x3F, 0x3F, 0x3F, 0x3F, 0x3F, 0x3F, 0x3F, 0x3F, 0x3F, 0x3F, 0x3F, 0x3F, 0x3F, 0x3F, 0x3F
000c10 3f3f
000c11 3f3f
000c12 ffff
000c13 3030
000c14 3030
000c15 3030
000c16 3030
000c17 3030      	.db 0x3F, 0x3F, 0x3F, 0x3F, 0xFF, 0xFF, 0x30, 0x30, 0x30, 0x30, 0x30, 0x30, 0x30, 0x30, 0x30, 0x30
000c18 3030
000c19 3030
000c1a 3030
000c1b 3030
000c1c 3030
000c1d 3030
000c1e 3030
000c1f 3030      	.db 0x30, 0x30, 0x30, 0x30, 0x30, 0x30, 0x30, 0x30, 0x30, 0x30, 0x30, 0x30, 0x30, 0x30, 0x30, 0x30
000c20 3030
000c21 3030
000c22 3030
000c23 3030
000c24 3030
000c25 3030
000c26 3030
000c27 3030      	.db 0x30, 0x30, 0x30, 0x30, 0x30, 0x30, 0x30, 0x30, 0x30, 0x30, 0x30, 0x30, 0x30, 0x30, 0x30, 0x30
000c28 0000
000c29 0000
000c2a 0000
000c2b 0000
000c2c 0000
000c2d 0000
000c2e 0000
000c2f 0000      	.db 0x00, 0x00, 0x00, 0x00, 0x00, 0x00, 0x00, 0x00, 0x00, 0x00, 0x00, 0x00, 0x00, 0x00, 0x00, 0x00
000c30 20c0
000c31 0c18
000c32 ffff
000c33 0000
000c34 0000
000c35 0000
000c36 0000
000c37 0000      	.db 0xC0, 0x20, 0x18, 0x0C, 0xFF, 0xFF, 0x00, 0x00, 0x00, 0x00, 0x00, 0x00, 0x00, 0x00, 0x00, 0x00
000c38 0000
000c39 0000
000c3a 0000
000c3b 0000
000c3c ffff
000c3d 0000
000c3e 0000
000c3f 0000      	.db 0x00, 0x00, 0x00, 0x00, 0x00, 0x00, 0x00, 0x00, 0xFF, 0xFF, 0x00, 0x00, 0x00, 0x00, 0x00, 0x00
000c40 0000
000c41 0000
000c42 0000
000c43 0000
000c44 0000
000c45 7000
000c46 437f
000c47 6363      	.db 0x00, 0x00, 0x00, 0x00, 0x00, 0x00, 0x00, 0x00, 0x00, 0x00, 0x00, 0x70, 0x7F, 0x43, 0x63, 0x63
000c48 c363
000c49 0083
000c4a 0000
000c4b 0000
000c4c 0000
000c4d 0000
000c4e 0000
000c4f 0000      	.db 0x63, 0xC3, 0x83, 0x00, 0x00, 0x00, 0x00, 0x00, 0x00, 0x00, 0x00, 0x00, 0x00, 0x00, 0x00, 0x00
000c50 0000
000c51 0000
000c52 ffff
000c53 0000
000c54 0000
000c55 0000
000c56 0000
000c57 0000      	.db 0x00, 0x00, 0x00, 0x00, 0xFF, 0xFF, 0x00, 0x00, 0x00, 0x00, 0x00, 0x00, 0x00, 0x00, 0x00, 0x00
000c58 0000
000c59 0000
000c5a 0000
000c5b f8c0
000c5c 029c
000c5d 4242
000c5e c642
000c5f 0084      	.db 0x00, 0x00, 0x00, 0x00, 0x00, 0x00, 0xC0, 0xF8, 0x9C, 0x02, 0x42, 0x42, 0x42, 0xC6, 0x84, 0x00
000c60 0000
000c61 0000
000c62 0000
000c63 0000
000c64 0000
000c65 0000
000c66 0000
000c67 0000      	.db 0x00, 0x00, 0x00, 0x00, 0x00, 0x00, 0x00, 0x00, 0x00, 0x00, 0x00, 0x00, 0x00, 0x00, 0x00, 0x00
000c68 0000
000c69 0000
000c6a 0000
000c6b 0000
000c6c 0000
000c6d 0000
000c6e 0000
000c6f 0f0e      	.db 0x00, 0x00, 0x00, 0x00, 0x00, 0x00, 0x00, 0x00, 0x00, 0x00, 0x00, 0x00, 0x00, 0x00, 0x0E, 0x0F
000c70 0c0c
000c71 0c0c
000c72 7f7f
000c73 0c0c
000c74 0000
000c75 0000
000c76 0000
000c77 0000      	.db 0x0C, 0x0C, 0x0C, 0x0C, 0x7F, 0x7F, 0x0C, 0x0C, 0x00, 0x00, 0x00, 0x00, 0x00, 0x00, 0x00, 0x00
000c78 0000
000c79 0000
000c7a 0000
000c7b 0000
000c7c ffff
000c7d 0000
000c7e 0000
000c7f 0000      	.db 0x00, 0x00, 0x00, 0x00, 0x00, 0x00, 0x00, 0x00, 0xFF, 0xFF, 0x00, 0x00, 0x00, 0x00, 0x00, 0x00
000c80 0000
000c81 0000
000c82 0000
000c83 0000
000c84 0000
000c85 1800
000c86 2038
000c87 2020      	.db 0x00, 0x00, 0x00, 0x00, 0x00, 0x00, 0x00, 0x00, 0x00, 0x00, 0x00, 0x18, 0x38, 0x20, 0x20, 0x20
000c88 3020
000c89 061f
000c8a 0000
000c8b 0000
000c8c 0000
000c8d 0000
000c8e 0000
000c8f 0000      	.db 0x20, 0x30, 0x1F, 0x06, 0x00, 0x00, 0x00, 0x00, 0x00, 0x00, 0x00, 0x00, 0x00, 0x00, 0x00, 0x00
000c90 0000
000c91 0000
000c92 ffff
000c93 0000
000c94 0000
000c95 0000
000c96 0000
000c97 0000      	.db 0x00, 0x00, 0x00, 0x00, 0xFF, 0xFF, 0x00, 0x00, 0x00, 0x00, 0x00, 0x00, 0x00, 0x00, 0x00, 0x00
000c98 0000
000c99 0000
000c9a 0000
000c9b 0f01
000c9c 301f
000c9d 2020
000c9e 3020
000c9f 061f      	.db 0x00, 0x00, 0x00, 0x00, 0x00, 0x00, 0x01, 0x0F, 0x1F, 0x30, 0x20, 0x20, 0x20, 0x30, 0x1F, 0x06
000ca0 0000
000ca1 0000
000ca2 0000
000ca3 0000
000ca4 0000
000ca5 0000
000ca6 0000
000ca7 0000      	.db 0x00, 0x00, 0x00, 0x00, 0x00, 0x00, 0x00, 0x00, 0x00, 0x00, 0x00, 0x00, 0x00, 0x00, 0x00, 0x00
000ca8 0404
000ca9 0404
000caa 0404
000cab 0404
000cac 0404
000cad 0404
000cae 0404
000caf c4c4      	.db 0x04, 0x04, 0x04, 0x04, 0x04, 0x04, 0x04, 0x04, 0x04, 0x04, 0x04, 0x04, 0x04, 0x04, 0xC4, 0xC4
000cb0 c4c4
000cb1 c4c4
000cb2 c4c4
000cb3 04c4
000cb4 0404
000cb5 0404
000cb6 0404
000cb7 0404      	.db 0xC4, 0xC4, 0xC4, 0xC4, 0xC4, 0xC4, 0xC4, 0x04, 0x04, 0x04, 0x04, 0x04, 0x04, 0x04, 0x04, 0x04
000cb8 0404
000cb9 0404
000cba 0404
000cbb 0404
000cbc ffff
000cbd 0404
000cbe 0404
000cbf 0404      	.db 0x04, 0x04, 0x04, 0x04, 0x04, 0x04, 0x04, 0x04, 0xFF, 0xFF, 0x04, 0x04, 0x04, 0x04, 0x04, 0x04
000cc0 0404
000cc1 0404
000cc2 0404
000cc3 0404
000cc4 0404
000cc5 0404
000cc6 0404
000cc7 0404      	.db 0x04, 0x04, 0x04, 0x04, 0x04, 0x04, 0x04, 0x04, 0x04, 0x04, 0x04, 0x04, 0x04, 0x04, 0x04, 0x04
000cc8 0404
000cc9 0404
000cca 0404
000ccb 0404
000ccc 0404
000ccd 0404
000cce 0404
000ccf 0404      	.db 0x04, 0x04, 0x04, 0x04, 0x04, 0x04, 0x04, 0x04, 0x04, 0x04, 0x04, 0x04, 0x04, 0x04, 0x04, 0x04
000cd0 0404
000cd1 0404
000cd2 ffff
000cd3 0404
000cd4 0404
000cd5 0404
000cd6 0404
000cd7 0404      	.db 0x04, 0x04, 0x04, 0x04, 0xFF, 0xFF, 0x04, 0x04, 0x04, 0x04, 0x04, 0x04, 0x04, 0x04, 0x04, 0x04
000cd8 0404
000cd9 0404
000cda 0404
000cdb 0404
000cdc 8484
000cdd 8484
000cde 0484
000cdf 0404      	.db 0x04, 0x04, 0x04, 0x04, 0x04, 0x04, 0x04, 0x04, 0x84, 0x84, 0x84, 0x84, 0x84, 0x04, 0x04, 0x04
000ce0 0404
000ce1 0404
000ce2 0404
000ce3 0404
000ce4 0404
000ce5 0404
000ce6 0404
000ce7 0404      	.db 0x04, 0x04, 0x04, 0x04, 0x04, 0x04, 0x04, 0x04, 0x04, 0x04, 0x04, 0x04, 0x04, 0x04, 0x04, 0x04
000ce8 0000
000ce9 0000
000cea 0000
000ceb 0000
000cec 0000
000ced 0000
000cee 0000
000cef 0000      	.db 0x00, 0x00, 0x00, 0x00, 0x00, 0x00, 0x00, 0x00, 0x00, 0x00, 0x00, 0x00, 0x00, 0x00, 0x00, 0x00
000cf0 0000
000cf1 38e0
000cf2 030c
000cf3 0001
000cf4 0000
000cf5 0000
000cf6 0000
000cf7 0000      	.db 0x00, 0x00, 0xE0, 0x38, 0x0C, 0x03, 0x01, 0x00, 0x00, 0x00, 0x00, 0x00, 0x00, 0x00, 0x00, 0x00
000cf8 0000
000cf9 0000
000cfa 0000
000cfb 0000
000cfc ffff
000cfd 0000
000cfe 0000
000cff 0000      	.db 0x00, 0x00, 0x00, 0x00, 0x00, 0x00, 0x00, 0x00, 0xFF, 0xFF, 0x00, 0x00, 0x00, 0x00, 0x00, 0x00
000d00 0000
000d01 0000
000d02 0000
000d03 0000
000d04 0000
000d05 8e00
000d06 61df
000d07 6161      	.db 0x00, 0x00, 0x00, 0x00, 0x00, 0x00, 0x00, 0x00, 0x00, 0x00, 0x00, 0x8E, 0xDF, 0x61, 0x61, 0x61
000d08 9f61
000d09 008e
000d0a 0000
000d0b 0000
000d0c 0000
000d0d 0000
000d0e 0000
000d0f 0000      	.db 0x61, 0x9F, 0x8E, 0x00, 0x00, 0x00, 0x00, 0x00, 0x00, 0x00, 0x00, 0x00, 0x00, 0x00, 0x00, 0x00
000d10 0000
000d11 0000
000d12 ffff
000d13 0000
000d14 0000
000d15 0000
000d16 0000
000d17 0000      	.db 0x00, 0x00, 0x00, 0x00, 0xFF, 0xFF, 0x00, 0x00, 0x00, 0x00, 0x00, 0x00, 0x00, 0x00, 0x00, 0x00
000d18 0000
000d19 0000
000d1a 0000
000d1b 3f1e
000d1c 4061
000d1d 4040
000d1e ff01
000d1f 00fe      	.db 0x00, 0x00, 0x00, 0x00, 0x00, 0x00, 0x1E, 0x3F, 0x61, 0x40, 0x40, 0x40, 0x01, 0xFF, 0xFE, 0x00
000d20 0000
000d21 0000
000d22 0000
000d23 0000
000d24 0000
000d25 0000
000d26 0000
000d27 0000      	.db 0x00, 0x00, 0x00, 0x00, 0x00, 0x00, 0x00, 0x00, 0x00, 0x00, 0x00, 0x00, 0x00, 0x00, 0x00, 0x00
000d28 0000
000d29 0000
000d2a 0000
000d2b 0000
000d2c 0000
000d2d 0000
000d2e 0000
000d2f 0000      	.db 0x00, 0x00, 0x00, 0x00, 0x00, 0x00, 0x00, 0x00, 0x00, 0x00, 0x00, 0x00, 0x00, 0x00, 0x00, 0x00
000d30 1f10
000d31 0003
000d32 0000
000d33 0000
000d34 0000
000d35 0000
000d36 0000
000d37 0000      	.db 0x10, 0x1F, 0x03, 0x00, 0x00, 0x00, 0x00, 0x00, 0x00, 0x00, 0x00, 0x00, 0x00, 0x00, 0x00, 0x00
000d38 0000
000d39 0000
000d3a 0000
000d3b 0000
000d3c ffff
000d3d 0000
000d3e 0000
000d3f 0000      	.db 0x00, 0x00, 0x00, 0x00, 0x00, 0x00, 0x00, 0x00, 0xFF, 0xFF, 0x00, 0x00, 0x00, 0x00, 0x00, 0x00
000d40 0000
000d41 0000
000d42 0000
000d43 0000
000d44 0000
000d45 0f02
000d46 1018
000d47 1010      	.db 0x00, 0x00, 0x00, 0x00, 0x00, 0x00, 0x00, 0x00, 0x00, 0x00, 0x02, 0x0F, 0x18, 0x10, 0x10, 0x10
000d48 1f10
000d49 000f
000d4a 0000
000d4b 0000
000d4c 0000
000d4d 0000
000d4e 0000
000d4f 0000      	.db 0x10, 0x1F, 0x0F, 0x00, 0x00, 0x00, 0x00, 0x00, 0x00, 0x00, 0x00, 0x00, 0x00, 0x00, 0x00, 0x00
000d50 0000
000d51 0000
000d52 ffff
000d53 0000
000d54 0000
000d55 0000
000d56 0000
000d57 0000      	.db 0x00, 0x00, 0x00, 0x00, 0xFF, 0xFF, 0x00, 0x00, 0x00, 0x00, 0x00, 0x00, 0x00, 0x00, 0x00, 0x00
000d58 0000
000d59 0000
000d5a 0000
000d5b 0400
000d5c 080c
000d5d 0808
000d5e 070c
000d5f 0003      	.db 0x00, 0x00, 0x00, 0x00, 0x00, 0x00, 0x00, 0x04, 0x0C, 0x08, 0x08, 0x08, 0x0C, 0x07, 0x03, 0x00
000d60 0000
000d61 0000
000d62 0000
000d63 0000
000d64 0000
000d65 0000
000d66 0000
000d67 0000      	.db 0x00, 0x00, 0x00, 0x00, 0x00, 0x00, 0x00, 0x00, 0x00, 0x00, 0x00, 0x00, 0x00, 0x00, 0x00, 0x00
                 
                 Numero3:
                 
000d68 0000
000d69 0000
000d6a 0000
000d6b 0000
000d6c 0000
000d6d 0000
000d6e 0000
000d6f 8000      	.db 0x00, 0x00, 0x00, 0x00, 0x00, 0x00, 0x00, 0x00, 0x00, 0x00, 0x00, 0x00, 0x00, 0x00, 0x00, 0x80
000d70 4080
000d71 f860
000d72 00f8
000d73 0000
000d74 0000
000d75 0000
000d76 0000
000d77 0000      	.db 0x80, 0x40, 0x60, 0xF8, 0xF8, 0x00, 0x00, 0x00, 0x00, 0x00, 0x00, 0x00, 0x00, 0x00, 0x00, 0x00
000d78 0000
000d79 0000
000d7a 0000
000d7b 0000
000d7c ffff
000d7d 0000
000d7e 0000
000d7f 0000      	.db 0x00, 0x00, 0x00, 0x00, 0x00, 0x00, 0x00, 0x00, 0xFF, 0xFF, 0x00, 0x00, 0x00, 0x00, 0x00, 0x00
000d80 0000
000d81 0000
000d82 0000
000d83 0000
000d84 0000
000d85 3000
000d86 0818
000d87 0808      	.db 0x00, 0x00, 0x00, 0x00, 0x00, 0x00, 0x00, 0x00, 0x00, 0x00, 0x00, 0x30, 0x18, 0x08, 0x08, 0x08
000d88 f808
000d89 00f0
000d8a 0000
000d8b 0000
000d8c 0000
000d8d 0000
000d8e 0000
000d8f 0000      	.db 0x08, 0xF8, 0xF0, 0x00, 0x00, 0x00, 0x00, 0x00, 0x00, 0x00, 0x00, 0x00, 0x00, 0x00, 0x00, 0x00
000d90 0000
000d91 0000
000d92 ffff
000d93 fefe
000d94 fefe
000d95 fefe
000d96 fefe
000d97 fefe      	.db 0x00, 0x00, 0x00, 0x00, 0xFF, 0xFF, 0xFE, 0xFE, 0xFE, 0xFE, 0xFE, 0xFE, 0xFE, 0xFE, 0xFE, 0xFE
000d98 fefe
000d99 fefe
000d9a fefe
000d9b fefe
000d9c fefe
000d9d fefe
000d9e fefe
000d9f fefe      	.db 0xFE, 0xFE, 0xFE, 0xFE, 0xFE, 0xFE, 0xFE, 0xFE, 0xFE, 0xFE, 0xFE, 0xFE, 0xFE, 0xFE, 0xFE, 0xFE
000da0 fefe
000da1 fefe
000da2 fefe
000da3 fefe
000da4 fefe
000da5 fefe
000da6 fefe
000da7 fefe      	.db 0xFE, 0xFE, 0xFE, 0xFE, 0xFE, 0xFE, 0xFE, 0xFE, 0xFE, 0xFE, 0xFE, 0xFE, 0xFE, 0xFE, 0xFE, 0xFE
000da8 0000
000da9 0000
000daa 0000
000dab 0000
000dac 0000
000dad 0000
000dae 0000
000daf 0000      	.db 0x00, 0x00, 0x00, 0x00, 0x00, 0x00, 0x00, 0x00, 0x00, 0x00, 0x00, 0x00, 0x00, 0x00, 0x00, 0x00
000db0 0000
000db1 ff00
000db2 00ff
000db3 0000
000db4 0000
000db5 0000
000db6 0000
000db7 0000      	.db 0x00, 0x00, 0x00, 0xFF, 0xFF, 0x00, 0x00, 0x00, 0x00, 0x00, 0x00, 0x00, 0x00, 0x00, 0x00, 0x00
000db8 0000
000db9 0000
000dba 0000
000dbb 0000
000dbc ffff
000dbd 0000
000dbe 0000
000dbf 0000      	.db 0x00, 0x00, 0x00, 0x00, 0x00, 0x00, 0x00, 0x00, 0xFF, 0xFF, 0x00, 0x00, 0x00, 0x00, 0x00, 0x00
000dc0 0000
000dc1 0000
000dc2 0000
000dc3 0000
000dc4 0000
000dc5 c000
000dc6 f0e0
000dc7 8c98      	.db 0x00, 0x00, 0x00, 0x00, 0x00, 0x00, 0x00, 0x00, 0x00, 0x00, 0x00, 0xC0, 0xE0, 0xF0, 0x98, 0x8C
000dc8 8386
000dc9 0081
000dca 0000
000dcb 0000
000dcc 0000
000dcd 0000
000dce 0000
000dcf 0000      	.db 0x86, 0x83, 0x81, 0x00, 0x00, 0x00, 0x00, 0x00, 0x00, 0x00, 0x00, 0x00, 0x00, 0x00, 0x00, 0x00
000dd0 0000
000dd1 0000
000dd2 ffff
000dd3 ffff
000dd4 ffff
000dd5 ffff
000dd6 ffff
000dd7 ffff      	.db 0x00, 0x00, 0x00, 0x00, 0xFF, 0xFF, 0xFF, 0xFF, 0xFF, 0xFF, 0xFF, 0xFF, 0xFF, 0xFF, 0xFF, 0xFF
000dd8 ffff
000dd9 ffff
000dda ffff
000ddb ffff
000ddc ffff
000ddd ffff
000dde ffff
000ddf ffff      	.db 0xFF, 0xFF, 0xFF, 0xFF, 0xFF, 0xFF, 0xFF, 0xFF, 0xFF, 0xFF, 0xFF, 0xFF, 0xFF, 0xFF, 0xFF, 0xFF
000de0 ffff
000de1 ffff
000de2 ffff
000de3 ffff
000de4 ffff
000de5 ffff
000de6 ffff
000de7 ffff      	.db 0xFF, 0xFF, 0xFF, 0xFF, 0xFF, 0xFF, 0xFF, 0xFF, 0xFF, 0xFF, 0xFF, 0xFF, 0xFF, 0xFF, 0xFF, 0xFF
000de8 3030
000de9 3030
000dea 3030
000deb 3030
000dec 3030
000ded 3030
000dee 3030
000def 3030      	.db 0x30, 0x30, 0x30, 0x30, 0x30, 0x30, 0x30, 0x30, 0x30, 0x30, 0x30, 0x30, 0x30, 0x30, 0x30, 0x30
000df0 3030
000df1 3330
000df2 3033
000df3 3030
000df4 3030
000df5 3030
000df6 3030
000df7 3030      	.db 0x30, 0x30, 0x30, 0x33, 0x33, 0x30, 0x30, 0x30, 0x30, 0x30, 0x30, 0x30, 0x30, 0x30, 0x30, 0x30
000df8 3030
000df9 3030
000dfa 3030
000dfb 3030
000dfc ffff
000dfd 3030
000dfe 3030
000dff 3030      	.db 0x30, 0x30, 0x30, 0x30, 0x30, 0x30, 0x30, 0x30, 0xFF, 0xFF, 0x30, 0x30, 0x30, 0x30, 0x30, 0x30
000e00 3030
000e01 3030
000e02 3030
000e03 3030
000e04 3030
000e05 3131
000e06 3131
000e07 3131      	.db 0x30, 0x30, 0x30, 0x30, 0x30, 0x30, 0x30, 0x30, 0x30, 0x30, 0x31, 0x31, 0x31, 0x31, 0x31, 0x31
000e08 3131
000e09 3031
000e0a 3030
000e0b 3030
000e0c 3030
000e0d 3030
000e0e 3030
000e0f 3030      	.db 0x31, 0x31, 0x31, 0x30, 0x30, 0x30, 0x30, 0x30, 0x30, 0x30, 0x30, 0x30, 0x30, 0x30, 0x30, 0x30
000e10 3030
000e11 3030
000e12 ffff
000e13 3f3f
000e14 3f3f
000e15 3f3f
000e16 3f3f
000e17 3f3f      	.db 0x30, 0x30, 0x30, 0x30, 0xFF, 0xFF, 0x3F, 0x3F, 0x3F, 0x3F, 0x3F, 0x3F, 0x3F, 0x3F, 0x3F, 0x3F
000e18 3f3f
000e19 3f3f
000e1a 3f3f
000e1b 3f3f
000e1c 3f3f
000e1d 3f3f
000e1e 3f3f
000e1f 3f3f      	.db 0x3F, 0x3F, 0x3F, 0x3F, 0x3F, 0x3F, 0x3F, 0x3F, 0x3F, 0x3F, 0x3F, 0x3F, 0x3F, 0x3F, 0x3F, 0x3F
000e20 3f3f
000e21 3f3f
000e22 3f3f
000e23 3f3f
000e24 3f3f
000e25 3f3f
000e26 3f3f
000e27 3f3f      	.db 0x3F, 0x3F, 0x3F, 0x3F, 0x3F, 0x3F, 0x3F, 0x3F, 0x3F, 0x3F, 0x3F, 0x3F, 0x3F, 0x3F, 0x3F, 0x3F
000e28 0000
000e29 0000
000e2a 0000
000e2b 0000
000e2c 0000
000e2d 0000
000e2e 0000
000e2f 0000      	.db 0x00, 0x00, 0x00, 0x00, 0x00, 0x00, 0x00, 0x00, 0x00, 0x00, 0x00, 0x00, 0x00, 0x00, 0x00, 0x00
000e30 20c0
000e31 0c18
000e32 ffff
000e33 0000
000e34 0000
000e35 0000
000e36 0000
000e37 0000      	.db 0xC0, 0x20, 0x18, 0x0C, 0xFF, 0xFF, 0x00, 0x00, 0x00, 0x00, 0x00, 0x00, 0x00, 0x00, 0x00, 0x00
000e38 0000
000e39 0000
000e3a 0000
000e3b 0000
000e3c ffff
000e3d 0000
000e3e 0000
000e3f 0000      	.db 0x00, 0x00, 0x00, 0x00, 0x00, 0x00, 0x00, 0x00, 0xFF, 0xFF, 0x00, 0x00, 0x00, 0x00, 0x00, 0x00
000e40 0000
000e41 0000
000e42 0000
000e43 0000
000e44 0000
000e45 7000
000e46 437f
000e47 6363      	.db 0x00, 0x00, 0x00, 0x00, 0x00, 0x00, 0x00, 0x00, 0x00, 0x00, 0x00, 0x70, 0x7F, 0x43, 0x63, 0x63
000e48 c363
000e49 0083
000e4a 0000
000e4b 0000
000e4c 0000
000e4d 0000
000e4e 0000
000e4f 0000      	.db 0x63, 0xC3, 0x83, 0x00, 0x00, 0x00, 0x00, 0x00, 0x00, 0x00, 0x00, 0x00, 0x00, 0x00, 0x00, 0x00
000e50 0000
000e51 0000
000e52 ffff
000e53 0000
000e54 0000
000e55 0000
000e56 0000
000e57 0000      	.db 0x00, 0x00, 0x00, 0x00, 0xFF, 0xFF, 0x00, 0x00, 0x00, 0x00, 0x00, 0x00, 0x00, 0x00, 0x00, 0x00
000e58 0000
000e59 0000
000e5a 0000
000e5b f8c0
000e5c 029c
000e5d 4242
000e5e c642
000e5f 0084      	.db 0x00, 0x00, 0x00, 0x00, 0x00, 0x00, 0xC0, 0xF8, 0x9C, 0x02, 0x42, 0x42, 0x42, 0xC6, 0x84, 0x00
000e60 0000
000e61 0000
000e62 0000
000e63 0000
000e64 0000
000e65 0000
000e66 0000
000e67 0000      	.db 0x00, 0x00, 0x00, 0x00, 0x00, 0x00, 0x00, 0x00, 0x00, 0x00, 0x00, 0x00, 0x00, 0x00, 0x00, 0x00
000e68 0000
000e69 0000
000e6a 0000
000e6b 0000
000e6c 0000
000e6d 0000
000e6e 0000
000e6f 0f0e      	.db 0x00, 0x00, 0x00, 0x00, 0x00, 0x00, 0x00, 0x00, 0x00, 0x00, 0x00, 0x00, 0x00, 0x00, 0x0E, 0x0F
000e70 0c0c
000e71 0c0c
000e72 7f7f
000e73 0c0c
000e74 0000
000e75 0000
000e76 0000
000e77 0000      	.db 0x0C, 0x0C, 0x0C, 0x0C, 0x7F, 0x7F, 0x0C, 0x0C, 0x00, 0x00, 0x00, 0x00, 0x00, 0x00, 0x00, 0x00
000e78 0000
000e79 0000
000e7a 0000
000e7b 0000
000e7c ffff
000e7d 0000
000e7e 0000
000e7f 0000      	.db 0x00, 0x00, 0x00, 0x00, 0x00, 0x00, 0x00, 0x00, 0xFF, 0xFF, 0x00, 0x00, 0x00, 0x00, 0x00, 0x00
000e80 0000
000e81 0000
000e82 0000
000e83 0000
000e84 0000
000e85 1800
000e86 2038
000e87 2020      	.db 0x00, 0x00, 0x00, 0x00, 0x00, 0x00, 0x00, 0x00, 0x00, 0x00, 0x00, 0x18, 0x38, 0x20, 0x20, 0x20
000e88 3020
000e89 061f
000e8a 0000
000e8b 0000
000e8c 0000
000e8d 0000
000e8e 0000
000e8f 0000      	.db 0x20, 0x30, 0x1F, 0x06, 0x00, 0x00, 0x00, 0x00, 0x00, 0x00, 0x00, 0x00, 0x00, 0x00, 0x00, 0x00
000e90 0000
000e91 0000
000e92 ffff
000e93 0000
000e94 0000
000e95 0000
000e96 0000
000e97 0000      	.db 0x00, 0x00, 0x00, 0x00, 0xFF, 0xFF, 0x00, 0x00, 0x00, 0x00, 0x00, 0x00, 0x00, 0x00, 0x00, 0x00
000e98 0000
000e99 0000
000e9a 0000
000e9b 0f01
000e9c 301f
000e9d 2020
000e9e 3020
000e9f 061f      	.db 0x00, 0x00, 0x00, 0x00, 0x00, 0x00, 0x01, 0x0F, 0x1F, 0x30, 0x20, 0x20, 0x20, 0x30, 0x1F, 0x06
000ea0 0000
000ea1 0000
000ea2 0000
000ea3 0000
000ea4 0000
000ea5 0000
000ea6 0000
000ea7 0000      	.db 0x00, 0x00, 0x00, 0x00, 0x00, 0x00, 0x00, 0x00, 0x00, 0x00, 0x00, 0x00, 0x00, 0x00, 0x00, 0x00
000ea8 0404
000ea9 0404
000eaa 0404
000eab 0404
000eac 0404
000ead 0404
000eae 0404
000eaf c4c4      	.db 0x04, 0x04, 0x04, 0x04, 0x04, 0x04, 0x04, 0x04, 0x04, 0x04, 0x04, 0x04, 0x04, 0x04, 0xC4, 0xC4
000eb0 c4c4
000eb1 c4c4
000eb2 c4c4
000eb3 04c4
000eb4 0404
000eb5 0404
000eb6 0404
000eb7 0404      	.db 0xC4, 0xC4, 0xC4, 0xC4, 0xC4, 0xC4, 0xC4, 0x04, 0x04, 0x04, 0x04, 0x04, 0x04, 0x04, 0x04, 0x04
000eb8 0404
000eb9 0404
000eba 0404
000ebb 0404
000ebc ffff
000ebd 0404
000ebe 0404
000ebf 0404      	.db 0x04, 0x04, 0x04, 0x04, 0x04, 0x04, 0x04, 0x04, 0xFF, 0xFF, 0x04, 0x04, 0x04, 0x04, 0x04, 0x04
000ec0 0404
000ec1 0404
000ec2 0404
000ec3 0404
000ec4 0404
000ec5 0404
000ec6 0404
000ec7 0404      	.db 0x04, 0x04, 0x04, 0x04, 0x04, 0x04, 0x04, 0x04, 0x04, 0x04, 0x04, 0x04, 0x04, 0x04, 0x04, 0x04
000ec8 0404
000ec9 0404
000eca 0404
000ecb 0404
000ecc 0404
000ecd 0404
000ece 0404
000ecf 0404      	.db 0x04, 0x04, 0x04, 0x04, 0x04, 0x04, 0x04, 0x04, 0x04, 0x04, 0x04, 0x04, 0x04, 0x04, 0x04, 0x04
000ed0 0404
000ed1 0404
000ed2 ffff
000ed3 0404
000ed4 0404
000ed5 0404
000ed6 0404
000ed7 0404      	.db 0x04, 0x04, 0x04, 0x04, 0xFF, 0xFF, 0x04, 0x04, 0x04, 0x04, 0x04, 0x04, 0x04, 0x04, 0x04, 0x04
000ed8 0404
000ed9 0404
000eda 0404
000edb 0404
000edc 8484
000edd 8484
000ede 0484
000edf 0404      	.db 0x04, 0x04, 0x04, 0x04, 0x04, 0x04, 0x04, 0x04, 0x84, 0x84, 0x84, 0x84, 0x84, 0x04, 0x04, 0x04
000ee0 0404
000ee1 0404
000ee2 0404
000ee3 0404
000ee4 0404
000ee5 0404
000ee6 0404
000ee7 0404      	.db 0x04, 0x04, 0x04, 0x04, 0x04, 0x04, 0x04, 0x04, 0x04, 0x04, 0x04, 0x04, 0x04, 0x04, 0x04, 0x04
000ee8 0000
000ee9 0000
000eea 0000
000eeb 0000
000eec 0000
000eed 0000
000eee 0000
000eef 0000      	.db 0x00, 0x00, 0x00, 0x00, 0x00, 0x00, 0x00, 0x00, 0x00, 0x00, 0x00, 0x00, 0x00, 0x00, 0x00, 0x00
000ef0 0000
000ef1 38e0
000ef2 030c
000ef3 0001
000ef4 0000
000ef5 0000
000ef6 0000
000ef7 0000      	.db 0x00, 0x00, 0xE0, 0x38, 0x0C, 0x03, 0x01, 0x00, 0x00, 0x00, 0x00, 0x00, 0x00, 0x00, 0x00, 0x00
000ef8 0000
000ef9 0000
000efa 0000
000efb 0000
000efc ffff
000efd 0000
000efe 0000
000eff 0000      	.db 0x00, 0x00, 0x00, 0x00, 0x00, 0x00, 0x00, 0x00, 0xFF, 0xFF, 0x00, 0x00, 0x00, 0x00, 0x00, 0x00
000f00 0000
000f01 0000
000f02 0000
000f03 0000
000f04 0000
000f05 8e00
000f06 61df
000f07 6161      	.db 0x00, 0x00, 0x00, 0x00, 0x00, 0x00, 0x00, 0x00, 0x00, 0x00, 0x00, 0x8E, 0xDF, 0x61, 0x61, 0x61
000f08 9f61
000f09 008e
000f0a 0000
000f0b 0000
000f0c 0000
000f0d 0000
000f0e 0000
000f0f 0000      	.db 0x61, 0x9F, 0x8E, 0x00, 0x00, 0x00, 0x00, 0x00, 0x00, 0x00, 0x00, 0x00, 0x00, 0x00, 0x00, 0x00
000f10 0000
000f11 0000
000f12 ffff
000f13 0000
000f14 0000
000f15 0000
000f16 0000
000f17 0000      	.db 0x00, 0x00, 0x00, 0x00, 0xFF, 0xFF, 0x00, 0x00, 0x00, 0x00, 0x00, 0x00, 0x00, 0x00, 0x00, 0x00
000f18 0000
000f19 0000
000f1a 0000
000f1b 3f1e
000f1c 4061
000f1d 4040
000f1e ff01
000f1f 00fe      	.db 0x00, 0x00, 0x00, 0x00, 0x00, 0x00, 0x1E, 0x3F, 0x61, 0x40, 0x40, 0x40, 0x01, 0xFF, 0xFE, 0x00
000f20 0000
000f21 0000
000f22 0000
000f23 0000
000f24 0000
000f25 0000
000f26 0000
000f27 0000      	.db 0x00, 0x00, 0x00, 0x00, 0x00, 0x00, 0x00, 0x00, 0x00, 0x00, 0x00, 0x00, 0x00, 0x00, 0x00, 0x00
000f28 0000
000f29 0000
000f2a 0000
000f2b 0000
000f2c 0000
000f2d 0000
000f2e 0000
000f2f 0000      	.db 0x00, 0x00, 0x00, 0x00, 0x00, 0x00, 0x00, 0x00, 0x00, 0x00, 0x00, 0x00, 0x00, 0x00, 0x00, 0x00
000f30 1f10
000f31 0003
000f32 0000
000f33 0000
000f34 0000
000f35 0000
000f36 0000
000f37 0000      	.db 0x10, 0x1F, 0x03, 0x00, 0x00, 0x00, 0x00, 0x00, 0x00, 0x00, 0x00, 0x00, 0x00, 0x00, 0x00, 0x00
000f38 0000
000f39 0000
000f3a 0000
000f3b 0000
000f3c ffff
000f3d 0000
000f3e 0000
000f3f 0000      	.db 0x00, 0x00, 0x00, 0x00, 0x00, 0x00, 0x00, 0x00, 0xFF, 0xFF, 0x00, 0x00, 0x00, 0x00, 0x00, 0x00
000f40 0000
000f41 0000
000f42 0000
000f43 0000
000f44 0000
000f45 0f02
000f46 1018
000f47 1010      	.db 0x00, 0x00, 0x00, 0x00, 0x00, 0x00, 0x00, 0x00, 0x00, 0x00, 0x02, 0x0F, 0x18, 0x10, 0x10, 0x10
000f48 1f10
000f49 000f
000f4a 0000
000f4b 0000
000f4c 0000
000f4d 0000
000f4e 0000
000f4f 0000      	.db 0x10, 0x1F, 0x0F, 0x00, 0x00, 0x00, 0x00, 0x00, 0x00, 0x00, 0x00, 0x00, 0x00, 0x00, 0x00, 0x00
000f50 0000
000f51 0000
000f52 ffff
000f53 0000
000f54 0000
000f55 0000
000f56 0000
000f57 0000      	.db 0x00, 0x00, 0x00, 0x00, 0xFF, 0xFF, 0x00, 0x00, 0x00, 0x00, 0x00, 0x00, 0x00, 0x00, 0x00, 0x00
000f58 0000
000f59 0000
000f5a 0000
000f5b 0400
000f5c 080c
000f5d 0808
000f5e 070c
000f5f 0003      	.db 0x00, 0x00, 0x00, 0x00, 0x00, 0x00, 0x00, 0x04, 0x0C, 0x08, 0x08, 0x08, 0x0C, 0x07, 0x03, 0x00
000f60 0000
000f61 0000
000f62 0000
000f63 0000
000f64 0000
000f65 0000
000f66 0000
000f67 0000      	.db 0x00, 0x00, 0x00, 0x00, 0x00, 0x00, 0x00, 0x00, 0x00, 0x00, 0x00, 0x00, 0x00, 0x00, 0x00, 0x00
                 
                 Numero4:
                 
000f68 0000
000f69 0000
000f6a 0000
000f6b 0000
000f6c 0000
000f6d 0000
000f6e 0000
000f6f 8000      	.db 0x00, 0x00, 0x00, 0x00, 0x00, 0x00, 0x00, 0x00, 0x00, 0x00, 0x00, 0x00, 0x00, 0x00, 0x00, 0x80
000f70 4080
000f71 f860
000f72 00f8
000f73 0000
000f74 0000
000f75 0000
000f76 0000
000f77 0000      	.db 0x80, 0x40, 0x60, 0xF8, 0xF8, 0x00, 0x00, 0x00, 0x00, 0x00, 0x00, 0x00, 0x00, 0x00, 0x00, 0x00
000f78 0000
000f79 0000
000f7a 0000
000f7b 0000
000f7c ffff
000f7d 0000
000f7e 0000
000f7f 0000      	.db 0x00, 0x00, 0x00, 0x00, 0x00, 0x00, 0x00, 0x00, 0xFF, 0xFF, 0x00, 0x00, 0x00, 0x00, 0x00, 0x00
000f80 0000
000f81 0000
000f82 0000
000f83 0000
000f84 0000
000f85 3000
000f86 0818
000f87 0808      	.db 0x00, 0x00, 0x00, 0x00, 0x00, 0x00, 0x00, 0x00, 0x00, 0x00, 0x00, 0x30, 0x18, 0x08, 0x08, 0x08
000f88 f808
000f89 00f0
000f8a 0000
000f8b 0000
000f8c 0000
000f8d 0000
000f8e 0000
000f8f 0000      	.db 0x08, 0xF8, 0xF0, 0x00, 0x00, 0x00, 0x00, 0x00, 0x00, 0x00, 0x00, 0x00, 0x00, 0x00, 0x00, 0x00
000f90 0000
000f91 0000
000f92 ffff
000f93 0000
000f94 0000
000f95 0000
000f96 0000
000f97 0000      	.db 0x00, 0x00, 0x00, 0x00, 0xFF, 0xFF, 0x00, 0x00, 0x00, 0x00, 0x00, 0x00, 0x00, 0x00, 0x00, 0x00
000f98 0000
000f99 0000
000f9a 0000
000f9b 3000
000f9c 0818
000f9d 0808
000f9e f098
000f9f 0060      	.db 0x00, 0x00, 0x00, 0x00, 0x00, 0x00, 0x00, 0x30, 0x18, 0x08, 0x08, 0x08, 0x98, 0xF0, 0x60, 0x00
000fa0 0000
000fa1 0000
000fa2 0000
000fa3 0000
000fa4 0000
000fa5 0000
000fa6 0000
000fa7 0000      	.db 0x00, 0x00, 0x00, 0x00, 0x00, 0x00, 0x00, 0x00, 0x00, 0x00, 0x00, 0x00, 0x00, 0x00, 0x00, 0x00
000fa8 0000
000fa9 0000
000faa 0000
000fab 0000
000fac 0000
000fad 0000
000fae 0000
000faf 0000      	.db 0x00, 0x00, 0x00, 0x00, 0x00, 0x00, 0x00, 0x00, 0x00, 0x00, 0x00, 0x00, 0x00, 0x00, 0x00, 0x00
000fb0 0000
000fb1 ff00
000fb2 00ff
000fb3 0000
000fb4 0000
000fb5 0000
000fb6 0000
000fb7 0000      	.db 0x00, 0x00, 0x00, 0xFF, 0xFF, 0x00, 0x00, 0x00, 0x00, 0x00, 0x00, 0x00, 0x00, 0x00, 0x00, 0x00
000fb8 0000
000fb9 0000
000fba 0000
000fbb 0000
000fbc ffff
000fbd 0000
000fbe 0000
000fbf 0000      	.db 0x00, 0x00, 0x00, 0x00, 0x00, 0x00, 0x00, 0x00, 0xFF, 0xFF, 0x00, 0x00, 0x00, 0x00, 0x00, 0x00
000fc0 0000
000fc1 0000
000fc2 0000
000fc3 0000
000fc4 0000
000fc5 c000
000fc6 f0e0
000fc7 8c98      	.db 0x00, 0x00, 0x00, 0x00, 0x00, 0x00, 0x00, 0x00, 0x00, 0x00, 0x00, 0xC0, 0xE0, 0xF0, 0x98, 0x8C
000fc8 8386
000fc9 0081
000fca 0000
000fcb 0000
000fcc 0000
000fcd 0000
000fce 0000
000fcf 0000      	.db 0x86, 0x83, 0x81, 0x00, 0x00, 0x00, 0x00, 0x00, 0x00, 0x00, 0x00, 0x00, 0x00, 0x00, 0x00, 0x00
000fd0 0000
000fd1 0000
000fd2 ffff
000fd3 0000
000fd4 0000
000fd5 0000
000fd6 0000
000fd7 0000      	.db 0x00, 0x00, 0x00, 0x00, 0xFF, 0xFF, 0x00, 0x00, 0x00, 0x00, 0x00, 0x00, 0x00, 0x00, 0x00, 0x00
000fd8 0000
000fd9 0000
000fda 0000
000fdb 6000
000fdc 80c0
000fdd 8383
000fde fc83
000fdf 007c      	.db 0x00, 0x00, 0x00, 0x00, 0x00, 0x00, 0x00, 0x60, 0xC0, 0x80, 0x83, 0x83, 0x83, 0xFC, 0x7C, 0x00
000fe0 0000
000fe1 0000
000fe2 0000
000fe3 0000
000fe4 0000
000fe5 0000
000fe6 0000
000fe7 0000      	.db 0x00, 0x00, 0x00, 0x00, 0x00, 0x00, 0x00, 0x00, 0x00, 0x00, 0x00, 0x00, 0x00, 0x00, 0x00, 0x00
000fe8 f0f0
000fe9 f0f0
000fea f0f0
000feb f0f0
000fec f0f0
000fed f0f0
000fee f0f0
000fef f0f0      	.db 0xF0, 0xF0, 0xF0, 0xF0, 0xF0, 0xF0, 0xF0, 0xF0, 0xF0, 0xF0, 0xF0, 0xF0, 0xF0, 0xF0, 0xF0, 0xF0
000ff0 f0f0
000ff1 f3f0
000ff2 f0f3
000ff3 f0f0
000ff4 f0f0
000ff5 f0f0
000ff6 f0f0
000ff7 f0f0      	.db 0xF0, 0xF0, 0xF0, 0xF3, 0xF3, 0xF0, 0xF0, 0xF0, 0xF0, 0xF0, 0xF0, 0xF0, 0xF0, 0xF0, 0xF0, 0xF0
000ff8 f0f0
000ff9 f0f0
000ffa f0f0
000ffb f0f0
000ffc ffff
000ffd 3030
000ffe 3030
000fff 3030      	.db 0xF0, 0xF0, 0xF0, 0xF0, 0xF0, 0xF0, 0xF0, 0xF0, 0xFF, 0xFF, 0x30, 0x30, 0x30, 0x30, 0x30, 0x30
001000 3030
001001 3030
001002 3030
001003 3030
001004 3030
001005 3131
001006 3131
001007 3131      	.db 0x30, 0x30, 0x30, 0x30, 0x30, 0x30, 0x30, 0x30, 0x30, 0x30, 0x31, 0x31, 0x31, 0x31, 0x31, 0x31
001008 3131
001009 3031
00100a 3030
00100b 3030
00100c 3030
00100d 3030
00100e 3030
00100f 3030      	.db 0x31, 0x31, 0x31, 0x30, 0x30, 0x30, 0x30, 0x30, 0x30, 0x30, 0x30, 0x30, 0x30, 0x30, 0x30, 0x30
001010 3030
001011 3030
001012 ffff
001013 3030
001014 3030
001015 3030
001016 3030
001017 3030      	.db 0x30, 0x30, 0x30, 0x30, 0xFF, 0xFF, 0x30, 0x30, 0x30, 0x30, 0x30, 0x30, 0x30, 0x30, 0x30, 0x30
001018 3030
001019 3030
00101a 3030
00101b 3030
00101c 3030
00101d 3030
00101e 3030
00101f 3030      	.db 0x30, 0x30, 0x30, 0x30, 0x30, 0x30, 0x30, 0x30, 0x30, 0x30, 0x30, 0x30, 0x30, 0x30, 0x30, 0x30
001020 3030
001021 3030
001022 3030
001023 3030
001024 3030
001025 3030
001026 3030
001027 3030      	.db 0x30, 0x30, 0x30, 0x30, 0x30, 0x30, 0x30, 0x30, 0x30, 0x30, 0x30, 0x30, 0x30, 0x30, 0x30, 0x30
001028 ffff
001029 ffff
00102a ffff
00102b ffff
00102c ffff
00102d ffff
00102e ffff
00102f ffff      	.db 0xFF, 0xFF, 0xFF, 0xFF, 0xFF, 0xFF, 0xFF, 0xFF, 0xFF, 0xFF, 0xFF, 0xFF, 0xFF, 0xFF, 0xFF, 0xFF
001030 ffff
001031 ffff
001032 ffff
001033 ffff
001034 ffff
001035 ffff
001036 ffff
001037 ffff      	.db 0xFF, 0xFF, 0xFF, 0xFF, 0xFF, 0xFF, 0xFF, 0xFF, 0xFF, 0xFF, 0xFF, 0xFF, 0xFF, 0xFF, 0xFF, 0xFF
001038 ffff
001039 ffff
00103a ffff
00103b ffff
00103c ffff
00103d 0000
00103e 0000
00103f 0000      	.db 0xFF, 0xFF, 0xFF, 0xFF, 0xFF, 0xFF, 0xFF, 0xFF, 0xFF, 0xFF, 0x00, 0x00, 0x00, 0x00, 0x00, 0x00
001040 0000
001041 0000
001042 0000
001043 0000
001044 0000
001045 7000
001046 437f
001047 6363      	.db 0x00, 0x00, 0x00, 0x00, 0x00, 0x00, 0x00, 0x00, 0x00, 0x00, 0x00, 0x70, 0x7F, 0x43, 0x63, 0x63
001048 c363
001049 0083
00104a 0000
00104b 0000
00104c 0000
00104d 0000
00104e 0000
00104f 0000      	.db 0x63, 0xC3, 0x83, 0x00, 0x00, 0x00, 0x00, 0x00, 0x00, 0x00, 0x00, 0x00, 0x00, 0x00, 0x00, 0x00
001050 0000
001051 0000
001052 ffff
001053 0000
001054 0000
001055 0000
001056 0000
001057 0000      	.db 0x00, 0x00, 0x00, 0x00, 0xFF, 0xFF, 0x00, 0x00, 0x00, 0x00, 0x00, 0x00, 0x00, 0x00, 0x00, 0x00
001058 0000
001059 0000
00105a 0000
00105b f8c0
00105c 029c
00105d 4242
00105e c642
00105f 0084      	.db 0x00, 0x00, 0x00, 0x00, 0x00, 0x00, 0xC0, 0xF8, 0x9C, 0x02, 0x42, 0x42, 0x42, 0xC6, 0x84, 0x00
001060 0000
001061 0000
001062 0000
001063 0000
001064 0000
001065 0000
001066 0000
001067 0000      	.db 0x00, 0x00, 0x00, 0x00, 0x00, 0x00, 0x00, 0x00, 0x00, 0x00, 0x00, 0x00, 0x00, 0x00, 0x00, 0x00
001068 ffff
001069 ffff
00106a ffff
00106b ffff
00106c ffff
00106d ffff
00106e ffff
00106f ffff      	.db 0xFF, 0xFF, 0xFF, 0xFF, 0xFF, 0xFF, 0xFF, 0xFF, 0xFF, 0xFF, 0xFF, 0xFF, 0xFF, 0xFF, 0xFF, 0xFF
001070 ffff
001071 ffff
001072 ffff
001073 ffff
001074 ffff
001075 ffff
001076 ffff
001077 ffff      	.db 0xFF, 0xFF, 0xFF, 0xFF, 0xFF, 0xFF, 0xFF, 0xFF, 0xFF, 0xFF, 0xFF, 0xFF, 0xFF, 0xFF, 0xFF, 0xFF
001078 ffff
001079 ffff
00107a ffff
00107b ffff
00107c ffff
00107d 0000
00107e 0000
00107f 0000      	.db 0xFF, 0xFF, 0xFF, 0xFF, 0xFF, 0xFF, 0xFF, 0xFF, 0xFF, 0xFF, 0x00, 0x00, 0x00, 0x00, 0x00, 0x00
001080 0000
001081 0000
001082 0000
001083 0000
001084 0000
001085 1800
001086 2038
001087 2020      	.db 0x00, 0x00, 0x00, 0x00, 0x00, 0x00, 0x00, 0x00, 0x00, 0x00, 0x00, 0x18, 0x38, 0x20, 0x20, 0x20
001088 3020
001089 061f
00108a 0000
00108b 0000
00108c 0000
00108d 0000
00108e 0000
00108f 0000      	.db 0x20, 0x30, 0x1F, 0x06, 0x00, 0x00, 0x00, 0x00, 0x00, 0x00, 0x00, 0x00, 0x00, 0x00, 0x00, 0x00
001090 0000
001091 0000
001092 ffff
001093 0000
001094 0000
001095 0000
001096 0000
001097 0000      	.db 0x00, 0x00, 0x00, 0x00, 0xFF, 0xFF, 0x00, 0x00, 0x00, 0x00, 0x00, 0x00, 0x00, 0x00, 0x00, 0x00
001098 0000
001099 0000
00109a 0000
00109b 0f01
00109c 301f
00109d 2020
00109e 3020
00109f 061f      	.db 0x00, 0x00, 0x00, 0x00, 0x00, 0x00, 0x01, 0x0F, 0x1F, 0x30, 0x20, 0x20, 0x20, 0x30, 0x1F, 0x06
0010a0 0000
0010a1 0000
0010a2 0000
0010a3 0000
0010a4 0000
0010a5 0000
0010a6 0000
0010a7 0000      	.db 0x00, 0x00, 0x00, 0x00, 0x00, 0x00, 0x00, 0x00, 0x00, 0x00, 0x00, 0x00, 0x00, 0x00, 0x00, 0x00
0010a8 0707
0010a9 0707
0010aa 0707
0010ab 0707
0010ac 0707
0010ad 0707
0010ae 0707
0010af c7c7      	.db 0x07, 0x07, 0x07, 0x07, 0x07, 0x07, 0x07, 0x07, 0x07, 0x07, 0x07, 0x07, 0x07, 0x07, 0xC7, 0xC7
0010b0 c7c7
0010b1 c7c7
0010b2 c7c7
0010b3 07c7
0010b4 0707
0010b5 0707
0010b6 0707
0010b7 0707      	.db 0xC7, 0xC7, 0xC7, 0xC7, 0xC7, 0xC7, 0xC7, 0x07, 0x07, 0x07, 0x07, 0x07, 0x07, 0x07, 0x07, 0x07
0010b8 0707
0010b9 0707
0010ba 0707
0010bb 0707
0010bc ffff
0010bd 0404
0010be 0404
0010bf 0404      	.db 0x07, 0x07, 0x07, 0x07, 0x07, 0x07, 0x07, 0x07, 0xFF, 0xFF, 0x04, 0x04, 0x04, 0x04, 0x04, 0x04
0010c0 0404
0010c1 0404
0010c2 0404
0010c3 0404
0010c4 0404
0010c5 0404
0010c6 0404
0010c7 0404      	.db 0x04, 0x04, 0x04, 0x04, 0x04, 0x04, 0x04, 0x04, 0x04, 0x04, 0x04, 0x04, 0x04, 0x04, 0x04, 0x04
0010c8 0404
0010c9 0404
0010ca 0404
0010cb 0404
0010cc 0404
0010cd 0404
0010ce 0404
0010cf 0404      	.db 0x04, 0x04, 0x04, 0x04, 0x04, 0x04, 0x04, 0x04, 0x04, 0x04, 0x04, 0x04, 0x04, 0x04, 0x04, 0x04
0010d0 0404
0010d1 0404
0010d2 ffff
0010d3 0404
0010d4 0404
0010d5 0404
0010d6 0404
0010d7 0404      	.db 0x04, 0x04, 0x04, 0x04, 0xFF, 0xFF, 0x04, 0x04, 0x04, 0x04, 0x04, 0x04, 0x04, 0x04, 0x04, 0x04
0010d8 0404
0010d9 0404
0010da 0404
0010db 0404
0010dc 8484
0010dd 8484
0010de 0484
0010df 0404      	.db 0x04, 0x04, 0x04, 0x04, 0x04, 0x04, 0x04, 0x04, 0x84, 0x84, 0x84, 0x84, 0x84, 0x04, 0x04, 0x04
0010e0 0404
0010e1 0404
0010e2 0404
0010e3 0404
0010e4 0404
0010e5 0404
0010e6 0404
0010e7 0404      	.db 0x04, 0x04, 0x04, 0x04, 0x04, 0x04, 0x04, 0x04, 0x04, 0x04, 0x04, 0x04, 0x04, 0x04, 0x04, 0x04
0010e8 0000
0010e9 0000
0010ea 0000
0010eb 0000
0010ec 0000
0010ed 0000
0010ee 0000
0010ef 0000      	.db 0x00, 0x00, 0x00, 0x00, 0x00, 0x00, 0x00, 0x00, 0x00, 0x00, 0x00, 0x00, 0x00, 0x00, 0x00, 0x00
0010f0 0000
0010f1 38e0
0010f2 030c
0010f3 0001
0010f4 0000
0010f5 0000
0010f6 0000
0010f7 0000      	.db 0x00, 0x00, 0xE0, 0x38, 0x0C, 0x03, 0x01, 0x00, 0x00, 0x00, 0x00, 0x00, 0x00, 0x00, 0x00, 0x00
0010f8 0000
0010f9 0000
0010fa 0000
0010fb 0000
0010fc ffff
0010fd 0000
0010fe 0000
0010ff 0000      	.db 0x00, 0x00, 0x00, 0x00, 0x00, 0x00, 0x00, 0x00, 0xFF, 0xFF, 0x00, 0x00, 0x00, 0x00, 0x00, 0x00
001100 0000
001101 0000
001102 0000
001103 0000
001104 0000
001105 8e00
001106 61df
001107 6161      	.db 0x00, 0x00, 0x00, 0x00, 0x00, 0x00, 0x00, 0x00, 0x00, 0x00, 0x00, 0x8E, 0xDF, 0x61, 0x61, 0x61
001108 9f61
001109 008e
00110a 0000
00110b 0000
00110c 0000
00110d 0000
00110e 0000
00110f 0000      	.db 0x61, 0x9F, 0x8E, 0x00, 0x00, 0x00, 0x00, 0x00, 0x00, 0x00, 0x00, 0x00, 0x00, 0x00, 0x00, 0x00
001110 0000
001111 0000
001112 ffff
001113 0000
001114 0000
001115 0000
001116 0000
001117 0000      	.db 0x00, 0x00, 0x00, 0x00, 0xFF, 0xFF, 0x00, 0x00, 0x00, 0x00, 0x00, 0x00, 0x00, 0x00, 0x00, 0x00
001118 0000
001119 0000
00111a 0000
00111b 3f1e
00111c 4061
00111d 4040
00111e ff01
00111f 00fe      	.db 0x00, 0x00, 0x00, 0x00, 0x00, 0x00, 0x1E, 0x3F, 0x61, 0x40, 0x40, 0x40, 0x01, 0xFF, 0xFE, 0x00
001120 0000
001121 0000
001122 0000
001123 0000
001124 0000
001125 0000
001126 0000
001127 0000      	.db 0x00, 0x00, 0x00, 0x00, 0x00, 0x00, 0x00, 0x00, 0x00, 0x00, 0x00, 0x00, 0x00, 0x00, 0x00, 0x00
001128 0000
001129 0000
00112a 0000
00112b 0000
00112c 0000
00112d 0000
00112e 0000
00112f 0000      	.db 0x00, 0x00, 0x00, 0x00, 0x00, 0x00, 0x00, 0x00, 0x00, 0x00, 0x00, 0x00, 0x00, 0x00, 0x00, 0x00
001130 1f10
001131 0003
001132 0000
001133 0000
001134 0000
001135 0000
001136 0000
001137 0000      	.db 0x10, 0x1F, 0x03, 0x00, 0x00, 0x00, 0x00, 0x00, 0x00, 0x00, 0x00, 0x00, 0x00, 0x00, 0x00, 0x00
001138 0000
001139 0000
00113a 0000
00113b 0000
00113c ffff
00113d 0000
00113e 0000
00113f 0000      	.db 0x00, 0x00, 0x00, 0x00, 0x00, 0x00, 0x00, 0x00, 0xFF, 0xFF, 0x00, 0x00, 0x00, 0x00, 0x00, 0x00
001140 0000
001141 0000
001142 0000
001143 0000
001144 0000
001145 0f02
001146 1018
001147 1010      	.db 0x00, 0x00, 0x00, 0x00, 0x00, 0x00, 0x00, 0x00, 0x00, 0x00, 0x02, 0x0F, 0x18, 0x10, 0x10, 0x10
001148 1f10
001149 000f
00114a 0000
00114b 0000
00114c 0000
00114d 0000
00114e 0000
00114f 0000      	.db 0x10, 0x1F, 0x0F, 0x00, 0x00, 0x00, 0x00, 0x00, 0x00, 0x00, 0x00, 0x00, 0x00, 0x00, 0x00, 0x00
001150 0000
001151 0000
001152 ffff
001153 0000
001154 0000
001155 0000
001156 0000
001157 0000      	.db 0x00, 0x00, 0x00, 0x00, 0xFF, 0xFF, 0x00, 0x00, 0x00, 0x00, 0x00, 0x00, 0x00, 0x00, 0x00, 0x00
001158 0000
001159 0000
00115a 0000
00115b 0400
00115c 080c
00115d 0808
00115e 070c
00115f 0003      	.db 0x00, 0x00, 0x00, 0x00, 0x00, 0x00, 0x00, 0x04, 0x0C, 0x08, 0x08, 0x08, 0x0C, 0x07, 0x03, 0x00
001160 0000
001161 0000
001162 0000
001163 0000
001164 0000
001165 0000
001166 0000
001167 0000      	.db 0x00, 0x00, 0x00, 0x00, 0x00, 0x00, 0x00, 0x00, 0x00, 0x00, 0x00, 0x00, 0x00, 0x00, 0x00, 0x00
                 
                 
                 Numero5:
                 
001168 0000
001169 0000
00116a 0000
00116b 0000
00116c 0000
00116d 0000
00116e 0000
00116f 8000      	.db 0x00, 0x00, 0x00, 0x00, 0x00, 0x00, 0x00, 0x00, 0x00, 0x00, 0x00, 0x00, 0x00, 0x00, 0x00, 0x80
001170 4080
001171 f860
001172 00f8
001173 0000
001174 0000
001175 0000
001176 0000
001177 0000      	.db 0x80, 0x40, 0x60, 0xF8, 0xF8, 0x00, 0x00, 0x00, 0x00, 0x00, 0x00, 0x00, 0x00, 0x00, 0x00, 0x00
001178 0000
001179 0000
00117a 0000
00117b 0000
00117c ffff
00117d 0000
00117e 0000
00117f 0000      	.db 0x00, 0x00, 0x00, 0x00, 0x00, 0x00, 0x00, 0x00, 0xFF, 0xFF, 0x00, 0x00, 0x00, 0x00, 0x00, 0x00
001180 0000
001181 0000
001182 0000
001183 0000
001184 0000
001185 3000
001186 0818
001187 0808      	.db 0x00, 0x00, 0x00, 0x00, 0x00, 0x00, 0x00, 0x00, 0x00, 0x00, 0x00, 0x30, 0x18, 0x08, 0x08, 0x08
001188 f808
001189 00f0
00118a 0000
00118b 0000
00118c 0000
00118d 0000
00118e 0000
00118f 0000      	.db 0x08, 0xF8, 0xF0, 0x00, 0x00, 0x00, 0x00, 0x00, 0x00, 0x00, 0x00, 0x00, 0x00, 0x00, 0x00, 0x00
001190 0000
001191 0000
001192 ffff
001193 0000
001194 0000
001195 0000
001196 0000
001197 0000      	.db 0x00, 0x00, 0x00, 0x00, 0xFF, 0xFF, 0x00, 0x00, 0x00, 0x00, 0x00, 0x00, 0x00, 0x00, 0x00, 0x00
001198 0000
001199 0000
00119a 0000
00119b 3000
00119c 0818
00119d 0808
00119e f098
00119f 0060      	.db 0x00, 0x00, 0x00, 0x00, 0x00, 0x00, 0x00, 0x30, 0x18, 0x08, 0x08, 0x08, 0x98, 0xF0, 0x60, 0x00
0011a0 0000
0011a1 0000
0011a2 0000
0011a3 0000
0011a4 0000
0011a5 0000
0011a6 0000
0011a7 0000      	.db 0x00, 0x00, 0x00, 0x00, 0x00, 0x00, 0x00, 0x00, 0x00, 0x00, 0x00, 0x00, 0x00, 0x00, 0x00, 0x00
0011a8 0000
0011a9 0000
0011aa 0000
0011ab 0000
0011ac 0000
0011ad 0000
0011ae 0000
0011af 0000      	.db 0x00, 0x00, 0x00, 0x00, 0x00, 0x00, 0x00, 0x00, 0x00, 0x00, 0x00, 0x00, 0x00, 0x00, 0x00, 0x00
0011b0 0000
0011b1 ff00
0011b2 00ff
0011b3 0000
0011b4 0000
0011b5 0000
0011b6 0000
0011b7 0000      	.db 0x00, 0x00, 0x00, 0xFF, 0xFF, 0x00, 0x00, 0x00, 0x00, 0x00, 0x00, 0x00, 0x00, 0x00, 0x00, 0x00
0011b8 0000
0011b9 0000
0011ba 0000
0011bb 0000
0011bc ffff
0011bd 0000
0011be 0000
0011bf 0000      	.db 0x00, 0x00, 0x00, 0x00, 0x00, 0x00, 0x00, 0x00, 0xFF, 0xFF, 0x00, 0x00, 0x00, 0x00, 0x00, 0x00
0011c0 0000
0011c1 0000
0011c2 0000
0011c3 0000
0011c4 0000
0011c5 c000
0011c6 f0e0
0011c7 8c98      	.db 0x00, 0x00, 0x00, 0x00, 0x00, 0x00, 0x00, 0x00, 0x00, 0x00, 0x00, 0xC0, 0xE0, 0xF0, 0x98, 0x8C
0011c8 8386
0011c9 0081
0011ca 0000
0011cb 0000
0011cc 0000
0011cd 0000
0011ce 0000
0011cf 0000      	.db 0x86, 0x83, 0x81, 0x00, 0x00, 0x00, 0x00, 0x00, 0x00, 0x00, 0x00, 0x00, 0x00, 0x00, 0x00, 0x00
0011d0 0000
0011d1 0000
0011d2 ffff
0011d3 0000
0011d4 0000
0011d5 0000
0011d6 0000
0011d7 0000      	.db 0x00, 0x00, 0x00, 0x00, 0xFF, 0xFF, 0x00, 0x00, 0x00, 0x00, 0x00, 0x00, 0x00, 0x00, 0x00, 0x00
0011d8 0000
0011d9 0000
0011da 0000
0011db 6000
0011dc 80c0
0011dd 8383
0011de fc83
0011df 007c      	.db 0x00, 0x00, 0x00, 0x00, 0x00, 0x00, 0x00, 0x60, 0xC0, 0x80, 0x83, 0x83, 0x83, 0xFC, 0x7C, 0x00
0011e0 0000
0011e1 0000
0011e2 0000
0011e3 0000
0011e4 0000
0011e5 0000
0011e6 0000
0011e7 0000      	.db 0x00, 0x00, 0x00, 0x00, 0x00, 0x00, 0x00, 0x00, 0x00, 0x00, 0x00, 0x00, 0x00, 0x00, 0x00, 0x00
0011e8 3030
0011e9 3030
0011ea 3030
0011eb 3030
0011ec 3030
0011ed 3030
0011ee 3030
0011ef 3030      	.db 0x30, 0x30, 0x30, 0x30, 0x30, 0x30, 0x30, 0x30, 0x30, 0x30, 0x30, 0x30, 0x30, 0x30, 0x30, 0x30
0011f0 3030
0011f1 3330
0011f2 3033
0011f3 3030
0011f4 3030
0011f5 3030
0011f6 3030
0011f7 3030      	.db 0x30, 0x30, 0x30, 0x33, 0x33, 0x30, 0x30, 0x30, 0x30, 0x30, 0x30, 0x30, 0x30, 0x30, 0x30, 0x30
0011f8 3030
0011f9 3030
0011fa 3030
0011fb 3030
0011fc ffff
0011fd f0f0
0011fe f0f0
0011ff f0f0      	.db 0x30, 0x30, 0x30, 0x30, 0x30, 0x30, 0x30, 0x30, 0xFF, 0xFF, 0xF0, 0xF0, 0xF0, 0xF0, 0xF0, 0xF0
001200 f0f0
001201 f0f0
001202 f0f0
001203 f0f0
001204 f0f0
001205 f1f1
001206 f1f1
001207 f1f1      	.db 0xF0, 0xF0, 0xF0, 0xF0, 0xF0, 0xF0, 0xF0, 0xF0, 0xF0, 0xF0, 0xF1, 0xF1, 0xF1, 0xF1, 0xF1, 0xF1
001208 f1f1
001209 f0f1
00120a f0f0
00120b f0f0
00120c f0f0
00120d f0f0
00120e f0f0
00120f f0f0      	.db 0xF1, 0xF1, 0xF1, 0xF0, 0xF0, 0xF0, 0xF0, 0xF0, 0xF0, 0xF0, 0xF0, 0xF0, 0xF0, 0xF0, 0xF0, 0xF0
001210 f0f0
001211 f0f0
001212 ffff
001213 3030
001214 3030
001215 3030
001216 3030
001217 3030      	.db 0xF0, 0xF0, 0xF0, 0xF0, 0xFF, 0xFF, 0x30, 0x30, 0x30, 0x30, 0x30, 0x30, 0x30, 0x30, 0x30, 0x30
001218 3030
001219 3030
00121a 3030
00121b 3030
00121c 3030
00121d 3030
00121e 3030
00121f 3030      	.db 0x30, 0x30, 0x30, 0x30, 0x30, 0x30, 0x30, 0x30, 0x30, 0x30, 0x30, 0x30, 0x30, 0x30, 0x30, 0x30
001220 3030
001221 3030
001222 3030
001223 3030
001224 3030
001225 3030
001226 3030
001227 3030      	.db 0x30, 0x30, 0x30, 0x30, 0x30, 0x30, 0x30, 0x30, 0x30, 0x30, 0x30, 0x30, 0x30, 0x30, 0x30, 0x30
001228 0000
001229 0000
00122a 0000
00122b 0000
00122c 0000
00122d 0000
00122e 0000
00122f 0000      	.db 0x00, 0x00, 0x00, 0x00, 0x00, 0x00, 0x00, 0x00, 0x00, 0x00, 0x00, 0x00, 0x00, 0x00, 0x00, 0x00
001230 20c0
001231 0c18
001232 ffff
001233 0000
001234 0000
001235 0000
001236 0000
001237 0000      	.db 0xC0, 0x20, 0x18, 0x0C, 0xFF, 0xFF, 0x00, 0x00, 0x00, 0x00, 0x00, 0x00, 0x00, 0x00, 0x00, 0x00
001238 0000
001239 0000
00123a 0000
00123b 0000
00123c ffff
00123d ffff
00123e ffff
00123f ffff      	.db 0x00, 0x00, 0x00, 0x00, 0x00, 0x00, 0x00, 0x00, 0xFF, 0xFF, 0xFF, 0xFF, 0xFF, 0xFF, 0xFF, 0xFF
001240 ffff
001241 ffff
001242 ffff
001243 ffff
001244 ffff
001245 ffff
001246 ffff
001247 ffff      	.db 0xFF, 0xFF, 0xFF, 0xFF, 0xFF, 0xFF, 0xFF, 0xFF, 0xFF, 0xFF, 0xFF, 0xFF, 0xFF, 0xFF, 0xFF, 0xFF
001248 ffff
001249 ffff
00124a ffff
00124b ffff
00124c ffff
00124d ffff
00124e ffff
00124f ffff      	.db 0xFF, 0xFF, 0xFF, 0xFF, 0xFF, 0xFF, 0xFF, 0xFF, 0xFF, 0xFF, 0xFF, 0xFF, 0xFF, 0xFF, 0xFF, 0xFF
001250 ffff
001251 ffff
001252 ffff
001253 0000
001254 0000
001255 0000
001256 0000
001257 0000      	.db 0xFF, 0xFF, 0xFF, 0xFF, 0xFF, 0xFF, 0x00, 0x00, 0x00, 0x00, 0x00, 0x00, 0x00, 0x00, 0x00, 0x00
001258 0000
001259 0000
00125a 0000
00125b f8c0
00125c 029c
00125d 4242
00125e c642
00125f 0084      	.db 0x00, 0x00, 0x00, 0x00, 0x00, 0x00, 0xC0, 0xF8, 0x9C, 0x02, 0x42, 0x42, 0x42, 0xC6, 0x84, 0x00
001260 0000
001261 0000
001262 0000
001263 0000
001264 0000
001265 0000
001266 0000
001267 0000      	.db 0x00, 0x00, 0x00, 0x00, 0x00, 0x00, 0x00, 0x00, 0x00, 0x00, 0x00, 0x00, 0x00, 0x00, 0x00, 0x00
001268 0000
001269 0000
00126a 0000
00126b 0000
00126c 0000
00126d 0000
00126e 0000
00126f 0f0e      	.db 0x00, 0x00, 0x00, 0x00, 0x00, 0x00, 0x00, 0x00, 0x00, 0x00, 0x00, 0x00, 0x00, 0x00, 0x0E, 0x0F
001270 0c0c
001271 0c0c
001272 7f7f
001273 0c0c
001274 0000
001275 0000
001276 0000
001277 0000      	.db 0x0C, 0x0C, 0x0C, 0x0C, 0x7F, 0x7F, 0x0C, 0x0C, 0x00, 0x00, 0x00, 0x00, 0x00, 0x00, 0x00, 0x00
001278 0000
001279 0000
00127a 0000
00127b 0000
00127c ffff
00127d ffff
00127e ffff
00127f ffff      	.db 0x00, 0x00, 0x00, 0x00, 0x00, 0x00, 0x00, 0x00, 0xFF, 0xFF, 0xFF, 0xFF, 0xFF, 0xFF, 0xFF, 0xFF
001280 ffff
001281 ffff
001282 ffff
001283 ffff
001284 ffff
001285 ffff
001286 ffff
001287 ffff      	.db 0xFF, 0xFF, 0xFF, 0xFF, 0xFF, 0xFF, 0xFF, 0xFF, 0xFF, 0xFF, 0xFF, 0xFF, 0xFF, 0xFF, 0xFF, 0xFF
001288 ffff
001289 ffff
00128a ffff
00128b ffff
00128c ffff
00128d ffff
00128e ffff
00128f ffff      	.db 0xFF, 0xFF, 0xFF, 0xFF, 0xFF, 0xFF, 0xFF, 0xFF, 0xFF, 0xFF, 0xFF, 0xFF, 0xFF, 0xFF, 0xFF, 0xFF
001290 ffff
001291 ffff
001292 ffff
001293 0000
001294 0000
001295 0000
001296 0000
001297 0000      	.db 0xFF, 0xFF, 0xFF, 0xFF, 0xFF, 0xFF, 0x00, 0x00, 0x00, 0x00, 0x00, 0x00, 0x00, 0x00, 0x00, 0x00
001298 0000
001299 0000
00129a 0000
00129b 0f01
00129c 301f
00129d 2020
00129e 3020
00129f 061f      	.db 0x00, 0x00, 0x00, 0x00, 0x00, 0x00, 0x01, 0x0F, 0x1F, 0x30, 0x20, 0x20, 0x20, 0x30, 0x1F, 0x06
0012a0 0000
0012a1 0000
0012a2 0000
0012a3 0000
0012a4 0000
0012a5 0000
0012a6 0000
0012a7 0000      	.db 0x00, 0x00, 0x00, 0x00, 0x00, 0x00, 0x00, 0x00, 0x00, 0x00, 0x00, 0x00, 0x00, 0x00, 0x00, 0x00
0012a8 0404
0012a9 0404
0012aa 0404
0012ab 0404
0012ac 0404
0012ad 0404
0012ae 0404
0012af c4c4      	.db 0x04, 0x04, 0x04, 0x04, 0x04, 0x04, 0x04, 0x04, 0x04, 0x04, 0x04, 0x04, 0x04, 0x04, 0xC4, 0xC4
0012b0 c4c4
0012b1 c4c4
0012b2 c4c4
0012b3 04c4
0012b4 0404
0012b5 0404
0012b6 0404
0012b7 0404      	.db 0xC4, 0xC4, 0xC4, 0xC4, 0xC4, 0xC4, 0xC4, 0x04, 0x04, 0x04, 0x04, 0x04, 0x04, 0x04, 0x04, 0x04
0012b8 0404
0012b9 0404
0012ba 0404
0012bb 0404
0012bc ffff
0012bd 0707
0012be 0707
0012bf 0707      	.db 0x04, 0x04, 0x04, 0x04, 0x04, 0x04, 0x04, 0x04, 0xFF, 0xFF, 0x07, 0x07, 0x07, 0x07, 0x07, 0x07
0012c0 0707
0012c1 0707
0012c2 0707
0012c3 0707
0012c4 0707
0012c5 0707
0012c6 0707
0012c7 0707      	.db 0x07, 0x07, 0x07, 0x07, 0x07, 0x07, 0x07, 0x07, 0x07, 0x07, 0x07, 0x07, 0x07, 0x07, 0x07, 0x07
0012c8 0707
0012c9 0707
0012ca 0707
0012cb 0707
0012cc 0707
0012cd 0707
0012ce 0707
0012cf 0707      	.db 0x07, 0x07, 0x07, 0x07, 0x07, 0x07, 0x07, 0x07, 0x07, 0x07, 0x07, 0x07, 0x07, 0x07, 0x07, 0x07
0012d0 0707
0012d1 0707
0012d2 ffff
0012d3 0404
0012d4 0404
0012d5 0404
0012d6 0404
0012d7 0404      	.db 0x07, 0x07, 0x07, 0x07, 0xFF, 0xFF, 0x04, 0x04, 0x04, 0x04, 0x04, 0x04, 0x04, 0x04, 0x04, 0x04
0012d8 0404
0012d9 0404
0012da 0404
0012db 0404
0012dc 8484
0012dd 8484
0012de 0484
0012df 0404      	.db 0x04, 0x04, 0x04, 0x04, 0x04, 0x04, 0x04, 0x04, 0x84, 0x84, 0x84, 0x84, 0x84, 0x04, 0x04, 0x04
0012e0 0404
0012e1 0404
0012e2 0404
0012e3 0404
0012e4 0404
0012e5 0404
0012e6 0404
0012e7 0404      	.db 0x04, 0x04, 0x04, 0x04, 0x04, 0x04, 0x04, 0x04, 0x04, 0x04, 0x04, 0x04, 0x04, 0x04, 0x04, 0x04
0012e8 0000
0012e9 0000
0012ea 0000
0012eb 0000
0012ec 0000
0012ed 0000
0012ee 0000
0012ef 0000      	.db 0x00, 0x00, 0x00, 0x00, 0x00, 0x00, 0x00, 0x00, 0x00, 0x00, 0x00, 0x00, 0x00, 0x00, 0x00, 0x00
0012f0 0000
0012f1 38e0
0012f2 030c
0012f3 0001
0012f4 0000
0012f5 0000
0012f6 0000
0012f7 0000      	.db 0x00, 0x00, 0xE0, 0x38, 0x0C, 0x03, 0x01, 0x00, 0x00, 0x00, 0x00, 0x00, 0x00, 0x00, 0x00, 0x00
0012f8 0000
0012f9 0000
0012fa 0000
0012fb 0000
0012fc ffff
0012fd 0000
0012fe 0000
0012ff 0000      	.db 0x00, 0x00, 0x00, 0x00, 0x00, 0x00, 0x00, 0x00, 0xFF, 0xFF, 0x00, 0x00, 0x00, 0x00, 0x00, 0x00
001300 0000
001301 0000
001302 0000
001303 0000
001304 0000
001305 8e00
001306 61df
001307 6161      	.db 0x00, 0x00, 0x00, 0x00, 0x00, 0x00, 0x00, 0x00, 0x00, 0x00, 0x00, 0x8E, 0xDF, 0x61, 0x61, 0x61
001308 9f61
001309 008e
00130a 0000
00130b 0000
00130c 0000
00130d 0000
00130e 0000
00130f 0000      	.db 0x61, 0x9F, 0x8E, 0x00, 0x00, 0x00, 0x00, 0x00, 0x00, 0x00, 0x00, 0x00, 0x00, 0x00, 0x00, 0x00
001310 0000
001311 0000
001312 ffff
001313 0000
001314 0000
001315 0000
001316 0000
001317 0000      	.db 0x00, 0x00, 0x00, 0x00, 0xFF, 0xFF, 0x00, 0x00, 0x00, 0x00, 0x00, 0x00, 0x00, 0x00, 0x00, 0x00
001318 0000
001319 0000
00131a 0000
00131b 3f1e
00131c 4061
00131d 4040
00131e ff01
00131f 00fe      	.db 0x00, 0x00, 0x00, 0x00, 0x00, 0x00, 0x1E, 0x3F, 0x61, 0x40, 0x40, 0x40, 0x01, 0xFF, 0xFE, 0x00
001320 0000
001321 0000
001322 0000
001323 0000
001324 0000
001325 0000
001326 0000
001327 0000      	.db 0x00, 0x00, 0x00, 0x00, 0x00, 0x00, 0x00, 0x00, 0x00, 0x00, 0x00, 0x00, 0x00, 0x00, 0x00, 0x00
001328 0000
001329 0000
00132a 0000
00132b 0000
00132c 0000
00132d 0000
00132e 0000
00132f 0000      	.db 0x00, 0x00, 0x00, 0x00, 0x00, 0x00, 0x00, 0x00, 0x00, 0x00, 0x00, 0x00, 0x00, 0x00, 0x00, 0x00
001330 1f10
001331 0003
001332 0000
001333 0000
001334 0000
001335 0000
001336 0000
001337 0000      	.db 0x10, 0x1F, 0x03, 0x00, 0x00, 0x00, 0x00, 0x00, 0x00, 0x00, 0x00, 0x00, 0x00, 0x00, 0x00, 0x00
001338 0000
001339 0000
00133a 0000
00133b 0000
00133c ffff
00133d 0000
00133e 0000
00133f 0000      	.db 0x00, 0x00, 0x00, 0x00, 0x00, 0x00, 0x00, 0x00, 0xFF, 0xFF, 0x00, 0x00, 0x00, 0x00, 0x00, 0x00
001340 0000
001341 0000
001342 0000
001343 0000
001344 0000
001345 0f02
001346 1018
001347 1010      	.db 0x00, 0x00, 0x00, 0x00, 0x00, 0x00, 0x00, 0x00, 0x00, 0x00, 0x02, 0x0F, 0x18, 0x10, 0x10, 0x10
001348 1f10
001349 000f
00134a 0000
00134b 0000
00134c 0000
00134d 0000
00134e 0000
00134f 0000      	.db 0x10, 0x1F, 0x0F, 0x00, 0x00, 0x00, 0x00, 0x00, 0x00, 0x00, 0x00, 0x00, 0x00, 0x00, 0x00, 0x00
001350 0000
001351 0000
001352 ffff
001353 0000
001354 0000
001355 0000
001356 0000
001357 0000      	.db 0x00, 0x00, 0x00, 0x00, 0xFF, 0xFF, 0x00, 0x00, 0x00, 0x00, 0x00, 0x00, 0x00, 0x00, 0x00, 0x00
001358 0000
001359 0000
00135a 0000
00135b 0400
00135c 080c
00135d 0808
00135e 070c
00135f 0003      	.db 0x00, 0x00, 0x00, 0x00, 0x00, 0x00, 0x00, 0x04, 0x0C, 0x08, 0x08, 0x08, 0x0C, 0x07, 0x03, 0x00
001360 0000
001361 0000
001362 0000
001363 0000
001364 0000
001365 0000
001366 0000
001367 0000      	.db 0x00, 0x00, 0x00, 0x00, 0x00, 0x00, 0x00, 0x00, 0x00, 0x00, 0x00, 0x00, 0x00, 0x00, 0x00, 0x00
                 
                 Numero6:
                 
001368 0000
001369 0000
00136a 0000
00136b 0000
00136c 0000
00136d 0000
00136e 0000
00136f 8000      	.db 0x00, 0x00, 0x00, 0x00, 0x00, 0x00, 0x00, 0x00, 0x00, 0x00, 0x00, 0x00, 0x00, 0x00, 0x00, 0x80
001370 4080
001371 f860
001372 00f8
001373 0000
001374 0000
001375 0000
001376 0000
001377 0000      	.db 0x80, 0x40, 0x60, 0xF8, 0xF8, 0x00, 0x00, 0x00, 0x00, 0x00, 0x00, 0x00, 0x00, 0x00, 0x00, 0x00
001378 0000
001379 0000
00137a 0000
00137b 0000
00137c ffff
00137d 0000
00137e 0000
00137f 0000      	.db 0x00, 0x00, 0x00, 0x00, 0x00, 0x00, 0x00, 0x00, 0xFF, 0xFF, 0x00, 0x00, 0x00, 0x00, 0x00, 0x00
001380 0000
001381 0000
001382 0000
001383 0000
001384 0000
001385 3000
001386 0818
001387 0808      	.db 0x00, 0x00, 0x00, 0x00, 0x00, 0x00, 0x00, 0x00, 0x00, 0x00, 0x00, 0x30, 0x18, 0x08, 0x08, 0x08
001388 f808
001389 00f0
00138a 0000
00138b 0000
00138c 0000
00138d 0000
00138e 0000
00138f 0000      	.db 0x08, 0xF8, 0xF0, 0x00, 0x00, 0x00, 0x00, 0x00, 0x00, 0x00, 0x00, 0x00, 0x00, 0x00, 0x00, 0x00
001390 0000
001391 0000
001392 ffff
001393 0000
001394 0000
001395 0000
001396 0000
001397 0000      	.db 0x00, 0x00, 0x00, 0x00, 0xFF, 0xFF, 0x00, 0x00, 0x00, 0x00, 0x00, 0x00, 0x00, 0x00, 0x00, 0x00
001398 0000
001399 0000
00139a 0000
00139b 3000
00139c 0818
00139d 0808
00139e f098
00139f 0060      	.db 0x00, 0x00, 0x00, 0x00, 0x00, 0x00, 0x00, 0x30, 0x18, 0x08, 0x08, 0x08, 0x98, 0xF0, 0x60, 0x00
0013a0 0000
0013a1 0000
0013a2 0000
0013a3 0000
0013a4 0000
0013a5 0000
0013a6 0000
0013a7 0000      	.db 0x00, 0x00, 0x00, 0x00, 0x00, 0x00, 0x00, 0x00, 0x00, 0x00, 0x00, 0x00, 0x00, 0x00, 0x00, 0x00
0013a8 0000
0013a9 0000
0013aa 0000
0013ab 0000
0013ac 0000
0013ad 0000
0013ae 0000
0013af 0000      	.db 0x00, 0x00, 0x00, 0x00, 0x00, 0x00, 0x00, 0x00, 0x00, 0x00, 0x00, 0x00, 0x00, 0x00, 0x00, 0x00
0013b0 0000
0013b1 ff00
0013b2 00ff
0013b3 0000
0013b4 0000
0013b5 0000
0013b6 0000
0013b7 0000      	.db 0x00, 0x00, 0x00, 0xFF, 0xFF, 0x00, 0x00, 0x00, 0x00, 0x00, 0x00, 0x00, 0x00, 0x00, 0x00, 0x00
0013b8 0000
0013b9 0000
0013ba 0000
0013bb 0000
0013bc ffff
0013bd 0000
0013be 0000
0013bf 0000      	.db 0x00, 0x00, 0x00, 0x00, 0x00, 0x00, 0x00, 0x00, 0xFF, 0xFF, 0x00, 0x00, 0x00, 0x00, 0x00, 0x00
0013c0 0000
0013c1 0000
0013c2 0000
0013c3 0000
0013c4 0000
0013c5 c000
0013c6 f0e0
0013c7 8c98      	.db 0x00, 0x00, 0x00, 0x00, 0x00, 0x00, 0x00, 0x00, 0x00, 0x00, 0x00, 0xC0, 0xE0, 0xF0, 0x98, 0x8C
0013c8 8386
0013c9 0081
0013ca 0000
0013cb 0000
0013cc 0000
0013cd 0000
0013ce 0000
0013cf 0000      	.db 0x86, 0x83, 0x81, 0x00, 0x00, 0x00, 0x00, 0x00, 0x00, 0x00, 0x00, 0x00, 0x00, 0x00, 0x00, 0x00
0013d0 0000
0013d1 0000
0013d2 ffff
0013d3 0000
0013d4 0000
0013d5 0000
0013d6 0000
0013d7 0000      	.db 0x00, 0x00, 0x00, 0x00, 0xFF, 0xFF, 0x00, 0x00, 0x00, 0x00, 0x00, 0x00, 0x00, 0x00, 0x00, 0x00
0013d8 0000
0013d9 0000
0013da 0000
0013db 6000
0013dc 80c0
0013dd 8383
0013de fc83
0013df 007c      	.db 0x00, 0x00, 0x00, 0x00, 0x00, 0x00, 0x00, 0x60, 0xC0, 0x80, 0x83, 0x83, 0x83, 0xFC, 0x7C, 0x00
0013e0 0000
0013e1 0000
0013e2 0000
0013e3 0000
0013e4 0000
0013e5 0000
0013e6 0000
0013e7 0000      	.db 0x00, 0x00, 0x00, 0x00, 0x00, 0x00, 0x00, 0x00, 0x00, 0x00, 0x00, 0x00, 0x00, 0x00, 0x00, 0x00
0013e8 3030
0013e9 3030
0013ea 3030
0013eb 3030
0013ec 3030
0013ed 3030
0013ee 3030
0013ef 3030      	.db 0x30, 0x30, 0x30, 0x30, 0x30, 0x30, 0x30, 0x30, 0x30, 0x30, 0x30, 0x30, 0x30, 0x30, 0x30, 0x30
0013f0 3030
0013f1 3330
0013f2 3033
0013f3 3030
0013f4 3030
0013f5 3030
0013f6 3030
0013f7 3030      	.db 0x30, 0x30, 0x30, 0x33, 0x33, 0x30, 0x30, 0x30, 0x30, 0x30, 0x30, 0x30, 0x30, 0x30, 0x30, 0x30
0013f8 3030
0013f9 3030
0013fa 3030
0013fb 3030
0013fc ffff
0013fd 3030
0013fe 3030
0013ff 3030      	.db 0x30, 0x30, 0x30, 0x30, 0x30, 0x30, 0x30, 0x30, 0xFF, 0xFF, 0x30, 0x30, 0x30, 0x30, 0x30, 0x30
001400 3030
001401 3030
001402 3030
001403 3030
001404 3030
001405 3131
001406 3131
001407 3131      	.db 0x30, 0x30, 0x30, 0x30, 0x30, 0x30, 0x30, 0x30, 0x30, 0x30, 0x31, 0x31, 0x31, 0x31, 0x31, 0x31
001408 3131
001409 3031
00140a 3030
00140b 3030
00140c 3030
00140d 3030
00140e 3030
00140f 3030      	.db 0x31, 0x31, 0x31, 0x30, 0x30, 0x30, 0x30, 0x30, 0x30, 0x30, 0x30, 0x30, 0x30, 0x30, 0x30, 0x30
001410 3030
001411 3030
001412 ffff
001413 f0f0
001414 f0f0
001415 f0f0
001416 f0f0
001417 f0f0      	.db 0x30, 0x30, 0x30, 0x30, 0xFF, 0xFF, 0xF0, 0xF0, 0xF0, 0xF0, 0xF0, 0xF0, 0xF0, 0xF0, 0xF0, 0xF0
001418 f0f0
001419 f0f0
00141a f0f0
00141b f0f0
00141c f0f0
00141d f0f0
00141e f0f0
00141f f0f0      	.db 0xF0, 0xF0, 0xF0, 0xF0, 0xF0, 0xF0, 0xF0, 0xF0, 0xF0, 0xF0, 0xF0, 0xF0, 0xF0, 0xF0, 0xF0, 0xF0
001420 f0f0
001421 f0f0
001422 f0f0
001423 f0f0
001424 f0f0
001425 f0f0
001426 f0f0
001427 f0f0      	.db 0xF0, 0xF0, 0xF0, 0xF0, 0xF0, 0xF0, 0xF0, 0xF0, 0xF0, 0xF0, 0xF0, 0xF0, 0xF0, 0xF0, 0xF0, 0xF0
001428 0000
001429 0000
00142a 0000
00142b 0000
00142c 0000
00142d 0000
00142e 0000
00142f 0000      	.db 0x00, 0x00, 0x00, 0x00, 0x00, 0x00, 0x00, 0x00, 0x00, 0x00, 0x00, 0x00, 0x00, 0x00, 0x00, 0x00
001430 20c0
001431 0c18
001432 ffff
001433 0000
001434 0000
001435 0000
001436 0000
001437 0000      	.db 0xC0, 0x20, 0x18, 0x0C, 0xFF, 0xFF, 0x00, 0x00, 0x00, 0x00, 0x00, 0x00, 0x00, 0x00, 0x00, 0x00
001438 0000
001439 0000
00143a 0000
00143b 0000
00143c ffff
00143d 0000
00143e 0000
00143f 0000      	.db 0x00, 0x00, 0x00, 0x00, 0x00, 0x00, 0x00, 0x00, 0xFF, 0xFF, 0x00, 0x00, 0x00, 0x00, 0x00, 0x00
001440 0000
001441 0000
001442 0000
001443 0000
001444 0000
001445 7000
001446 437f
001447 6363      	.db 0x00, 0x00, 0x00, 0x00, 0x00, 0x00, 0x00, 0x00, 0x00, 0x00, 0x00, 0x70, 0x7F, 0x43, 0x63, 0x63
001448 c363
001449 0083
00144a 0000
00144b 0000
00144c 0000
00144d 0000
00144e 0000
00144f 0000      	.db 0x63, 0xC3, 0x83, 0x00, 0x00, 0x00, 0x00, 0x00, 0x00, 0x00, 0x00, 0x00, 0x00, 0x00, 0x00, 0x00
001450 0000
001451 0000
001452 ffff
001453 ffff
001454 ffff
001455 ffff
001456 ffff
001457 ffff      	.db 0x00, 0x00, 0x00, 0x00, 0xFF, 0xFF, 0xFF, 0xFF, 0xFF, 0xFF, 0xFF, 0xFF, 0xFF, 0xFF, 0xFF, 0xFF
001458 ffff
001459 ffff
00145a ffff
00145b ffff
00145c ffff
00145d ffff
00145e ffff
00145f ffff      	.db 0xFF, 0xFF, 0xFF, 0xFF, 0xFF, 0xFF, 0xFF, 0xFF, 0xFF, 0xFF, 0xFF, 0xFF, 0xFF, 0xFF, 0xFF, 0xFF
001460 ffff
001461 ffff
001462 ffff
001463 ffff
001464 ffff
001465 ffff
001466 ffff
001467 ffff      	.db 0xFF, 0xFF, 0xFF, 0xFF, 0xFF, 0xFF, 0xFF, 0xFF, 0xFF, 0xFF, 0xFF, 0xFF, 0xFF, 0xFF, 0xFF, 0xFF
001468 0000
001469 0000
00146a 0000
00146b 0000
00146c 0000
00146d 0000
00146e 0000
00146f 0f0e      	.db 0x00, 0x00, 0x00, 0x00, 0x00, 0x00, 0x00, 0x00, 0x00, 0x00, 0x00, 0x00, 0x00, 0x00, 0x0E, 0x0F
001470 0c0c
001471 0c0c
001472 7f7f
001473 0c0c
001474 0000
001475 0000
001476 0000
001477 0000      	.db 0x0C, 0x0C, 0x0C, 0x0C, 0x7F, 0x7F, 0x0C, 0x0C, 0x00, 0x00, 0x00, 0x00, 0x00, 0x00, 0x00, 0x00
001478 0000
001479 0000
00147a 0000
00147b 0000
00147c ffff
00147d 0000
00147e 0000
00147f 0000      	.db 0x00, 0x00, 0x00, 0x00, 0x00, 0x00, 0x00, 0x00, 0xFF, 0xFF, 0x00, 0x00, 0x00, 0x00, 0x00, 0x00
001480 0000
001481 0000
001482 0000
001483 0000
001484 0000
001485 1800
001486 2038
001487 2020      	.db 0x00, 0x00, 0x00, 0x00, 0x00, 0x00, 0x00, 0x00, 0x00, 0x00, 0x00, 0x18, 0x38, 0x20, 0x20, 0x20
001488 3020
001489 061f
00148a 0000
00148b 0000
00148c 0000
00148d 0000
00148e 0000
00148f 0000      	.db 0x20, 0x30, 0x1F, 0x06, 0x00, 0x00, 0x00, 0x00, 0x00, 0x00, 0x00, 0x00, 0x00, 0x00, 0x00, 0x00
001490 0000
001491 0000
001492 ffff
001493 ffff
001494 ffff
001495 ffff
001496 ffff
001497 ffff      	.db 0x00, 0x00, 0x00, 0x00, 0xFF, 0xFF, 0xFF, 0xFF, 0xFF, 0xFF, 0xFF, 0xFF, 0xFF, 0xFF, 0xFF, 0xFF
001498 ffff
001499 ffff
00149a ffff
00149b ffff
00149c ffff
00149d ffff
00149e ffff
00149f ffff      	.db 0xFF, 0xFF, 0xFF, 0xFF, 0xFF, 0xFF, 0xFF, 0xFF, 0xFF, 0xFF, 0xFF, 0xFF, 0xFF, 0xFF, 0xFF, 0xFF
0014a0 ffff
0014a1 ffff
0014a2 ffff
0014a3 ffff
0014a4 ffff
0014a5 ffff
0014a6 ffff
0014a7 ffff      	.db 0xFF, 0xFF, 0xFF, 0xFF, 0xFF, 0xFF, 0xFF, 0xFF, 0xFF, 0xFF, 0xFF, 0xFF, 0xFF, 0xFF, 0xFF, 0xFF
0014a8 0404
0014a9 0404
0014aa 0404
0014ab 0404
0014ac 0404
0014ad 0404
0014ae 0404
0014af c4c4      	.db 0x04, 0x04, 0x04, 0x04, 0x04, 0x04, 0x04, 0x04, 0x04, 0x04, 0x04, 0x04, 0x04, 0x04, 0xC4, 0xC4
0014b0 c4c4
0014b1 c4c4
0014b2 c4c4
0014b3 04c4
0014b4 0404
0014b5 0404
0014b6 0404
0014b7 0404      	.db 0xC4, 0xC4, 0xC4, 0xC4, 0xC4, 0xC4, 0xC4, 0x04, 0x04, 0x04, 0x04, 0x04, 0x04, 0x04, 0x04, 0x04
0014b8 0404
0014b9 0404
0014ba 0404
0014bb 0404
0014bc ffff
0014bd 0404
0014be 0404
0014bf 0404      	.db 0x04, 0x04, 0x04, 0x04, 0x04, 0x04, 0x04, 0x04, 0xFF, 0xFF, 0x04, 0x04, 0x04, 0x04, 0x04, 0x04
0014c0 0404
0014c1 0404
0014c2 0404
0014c3 0404
0014c4 0404
0014c5 0404
0014c6 0404
0014c7 0404      	.db 0x04, 0x04, 0x04, 0x04, 0x04, 0x04, 0x04, 0x04, 0x04, 0x04, 0x04, 0x04, 0x04, 0x04, 0x04, 0x04
0014c8 0404
0014c9 0404
0014ca 0404
0014cb 0404
0014cc 0404
0014cd 0404
0014ce 0404
0014cf 0404      	.db 0x04, 0x04, 0x04, 0x04, 0x04, 0x04, 0x04, 0x04, 0x04, 0x04, 0x04, 0x04, 0x04, 0x04, 0x04, 0x04
0014d0 0404
0014d1 0404
0014d2 ffff
0014d3 0707
0014d4 0707
0014d5 0707
0014d6 0707
0014d7 0707      	.db 0x04, 0x04, 0x04, 0x04, 0xFF, 0xFF, 0x07, 0x07, 0x07, 0x07, 0x07, 0x07, 0x07, 0x07, 0x07, 0x07
0014d8 0707
0014d9 0707
0014da 0707
0014db 0707
0014dc 8787
0014dd 8787
0014de 0787
0014df 0707      	.db 0x07, 0x07, 0x07, 0x07, 0x07, 0x07, 0x07, 0x07, 0x87, 0x87, 0x87, 0x87, 0x87, 0x07, 0x07, 0x07
0014e0 0707
0014e1 0707
0014e2 0707
0014e3 0707
0014e4 0707
0014e5 0707
0014e6 0707
0014e7 0707      	.db 0x07, 0x07, 0x07, 0x07, 0x07, 0x07, 0x07, 0x07, 0x07, 0x07, 0x07, 0x07, 0x07, 0x07, 0x07, 0x07
0014e8 0000
0014e9 0000
0014ea 0000
0014eb 0000
0014ec 0000
0014ed 0000
0014ee 0000
0014ef 0000      	.db 0x00, 0x00, 0x00, 0x00, 0x00, 0x00, 0x00, 0x00, 0x00, 0x00, 0x00, 0x00, 0x00, 0x00, 0x00, 0x00
0014f0 0000
0014f1 38e0
0014f2 030c
0014f3 0001
0014f4 0000
0014f5 0000
0014f6 0000
0014f7 0000      	.db 0x00, 0x00, 0xE0, 0x38, 0x0C, 0x03, 0x01, 0x00, 0x00, 0x00, 0x00, 0x00, 0x00, 0x00, 0x00, 0x00
0014f8 0000
0014f9 0000
0014fa 0000
0014fb 0000
0014fc ffff
0014fd 0000
0014fe 0000
0014ff 0000      	.db 0x00, 0x00, 0x00, 0x00, 0x00, 0x00, 0x00, 0x00, 0xFF, 0xFF, 0x00, 0x00, 0x00, 0x00, 0x00, 0x00
001500 0000
001501 0000
001502 0000
001503 0000
001504 0000
001505 8e00
001506 61df
001507 6161      	.db 0x00, 0x00, 0x00, 0x00, 0x00, 0x00, 0x00, 0x00, 0x00, 0x00, 0x00, 0x8E, 0xDF, 0x61, 0x61, 0x61
001508 9f61
001509 008e
00150a 0000
00150b 0000
00150c 0000
00150d 0000
00150e 0000
00150f 0000      	.db 0x61, 0x9F, 0x8E, 0x00, 0x00, 0x00, 0x00, 0x00, 0x00, 0x00, 0x00, 0x00, 0x00, 0x00, 0x00, 0x00
001510 0000
001511 0000
001512 ffff
001513 0000
001514 0000
001515 0000
001516 0000
001517 0000      	.db 0x00, 0x00, 0x00, 0x00, 0xFF, 0xFF, 0x00, 0x00, 0x00, 0x00, 0x00, 0x00, 0x00, 0x00, 0x00, 0x00
001518 0000
001519 0000
00151a 0000
00151b 3f1e
00151c 4061
00151d 4040
00151e ff01
00151f 00fe      	.db 0x00, 0x00, 0x00, 0x00, 0x00, 0x00, 0x1E, 0x3F, 0x61, 0x40, 0x40, 0x40, 0x01, 0xFF, 0xFE, 0x00
001520 0000
001521 0000
001522 0000
001523 0000
001524 0000
001525 0000
001526 0000
001527 0000      	.db 0x00, 0x00, 0x00, 0x00, 0x00, 0x00, 0x00, 0x00, 0x00, 0x00, 0x00, 0x00, 0x00, 0x00, 0x00, 0x00
001528 0000
001529 0000
00152a 0000
00152b 0000
00152c 0000
00152d 0000
00152e 0000
00152f 0000      	.db 0x00, 0x00, 0x00, 0x00, 0x00, 0x00, 0x00, 0x00, 0x00, 0x00, 0x00, 0x00, 0x00, 0x00, 0x00, 0x00
001530 1f10
001531 0003
001532 0000
001533 0000
001534 0000
001535 0000
001536 0000
001537 0000      	.db 0x10, 0x1F, 0x03, 0x00, 0x00, 0x00, 0x00, 0x00, 0x00, 0x00, 0x00, 0x00, 0x00, 0x00, 0x00, 0x00
001538 0000
001539 0000
00153a 0000
00153b 0000
00153c ffff
00153d 0000
00153e 0000
00153f 0000      	.db 0x00, 0x00, 0x00, 0x00, 0x00, 0x00, 0x00, 0x00, 0xFF, 0xFF, 0x00, 0x00, 0x00, 0x00, 0x00, 0x00
001540 0000
001541 0000
001542 0000
001543 0000
001544 0000
001545 0f02
001546 1018
001547 1010      	.db 0x00, 0x00, 0x00, 0x00, 0x00, 0x00, 0x00, 0x00, 0x00, 0x00, 0x02, 0x0F, 0x18, 0x10, 0x10, 0x10
001548 1f10
001549 000f
00154a 0000
00154b 0000
00154c 0000
00154d 0000
00154e 0000
00154f 0000      	.db 0x10, 0x1F, 0x0F, 0x00, 0x00, 0x00, 0x00, 0x00, 0x00, 0x00, 0x00, 0x00, 0x00, 0x00, 0x00, 0x00
001550 0000
001551 0000
001552 ffff
001553 0000
001554 0000
001555 0000
001556 0000
001557 0000      	.db 0x00, 0x00, 0x00, 0x00, 0xFF, 0xFF, 0x00, 0x00, 0x00, 0x00, 0x00, 0x00, 0x00, 0x00, 0x00, 0x00
001558 0000
001559 0000
00155a 0000
00155b 0400
00155c 080c
00155d 0808
00155e 070c
00155f 0003      	.db 0x00, 0x00, 0x00, 0x00, 0x00, 0x00, 0x00, 0x04, 0x0C, 0x08, 0x08, 0x08, 0x0C, 0x07, 0x03, 0x00
001560 0000
001561 0000
001562 0000
001563 0000
001564 0000
001565 0000
001566 0000
001567 0000      	.db 0x00, 0x00, 0x00, 0x00, 0x00, 0x00, 0x00, 0x00, 0x00, 0x00, 0x00, 0x00, 0x00, 0x00, 0x00, 0x00
                 
                 Numero7:
                 
001568 0000
001569 0000
00156a 0000
00156b 0000
00156c 0000
00156d 0000
00156e 0000
00156f 8000      	.db 0x00, 0x00, 0x00, 0x00, 0x00, 0x00, 0x00, 0x00, 0x00, 0x00, 0x00, 0x00, 0x00, 0x00, 0x00, 0x80
001570 4080
001571 f860
001572 00f8
001573 0000
001574 0000
001575 0000
001576 0000
001577 0000      	.db 0x80, 0x40, 0x60, 0xF8, 0xF8, 0x00, 0x00, 0x00, 0x00, 0x00, 0x00, 0x00, 0x00, 0x00, 0x00, 0x00
001578 0000
001579 0000
00157a 0000
00157b 0000
00157c ffff
00157d 0000
00157e 0000
00157f 0000      	.db 0x00, 0x00, 0x00, 0x00, 0x00, 0x00, 0x00, 0x00, 0xFF, 0xFF, 0x00, 0x00, 0x00, 0x00, 0x00, 0x00
001580 0000
001581 0000
001582 0000
001583 0000
001584 0000
001585 3000
001586 0818
001587 0808      	.db 0x00, 0x00, 0x00, 0x00, 0x00, 0x00, 0x00, 0x00, 0x00, 0x00, 0x00, 0x30, 0x18, 0x08, 0x08, 0x08
001588 f808
001589 00f0
00158a 0000
00158b 0000
00158c 0000
00158d 0000
00158e 0000
00158f 0000      	.db 0x08, 0xF8, 0xF0, 0x00, 0x00, 0x00, 0x00, 0x00, 0x00, 0x00, 0x00, 0x00, 0x00, 0x00, 0x00, 0x00
001590 0000
001591 0000
001592 ffff
001593 0000
001594 0000
001595 0000
001596 0000
001597 0000      	.db 0x00, 0x00, 0x00, 0x00, 0xFF, 0xFF, 0x00, 0x00, 0x00, 0x00, 0x00, 0x00, 0x00, 0x00, 0x00, 0x00
001598 0000
001599 0000
00159a 0000
00159b 3000
00159c 0818
00159d 0808
00159e f098
00159f 0060      	.db 0x00, 0x00, 0x00, 0x00, 0x00, 0x00, 0x00, 0x30, 0x18, 0x08, 0x08, 0x08, 0x98, 0xF0, 0x60, 0x00
0015a0 0000
0015a1 0000
0015a2 0000
0015a3 0000
0015a4 0000
0015a5 0000
0015a6 0000
0015a7 0000      	.db 0x00, 0x00, 0x00, 0x00, 0x00, 0x00, 0x00, 0x00, 0x00, 0x00, 0x00, 0x00, 0x00, 0x00, 0x00, 0x00
0015a8 0000
0015a9 0000
0015aa 0000
0015ab 0000
0015ac 0000
0015ad 0000
0015ae 0000
0015af 0000      	.db 0x00, 0x00, 0x00, 0x00, 0x00, 0x00, 0x00, 0x00, 0x00, 0x00, 0x00, 0x00, 0x00, 0x00, 0x00, 0x00
0015b0 0000
0015b1 ff00
0015b2 00ff
0015b3 0000
0015b4 0000
0015b5 0000
0015b6 0000
0015b7 0000      	.db 0x00, 0x00, 0x00, 0xFF, 0xFF, 0x00, 0x00, 0x00, 0x00, 0x00, 0x00, 0x00, 0x00, 0x00, 0x00, 0x00
0015b8 0000
0015b9 0000
0015ba 0000
0015bb 0000
0015bc ffff
0015bd 0000
0015be 0000
0015bf 0000      	.db 0x00, 0x00, 0x00, 0x00, 0x00, 0x00, 0x00, 0x00, 0xFF, 0xFF, 0x00, 0x00, 0x00, 0x00, 0x00, 0x00
0015c0 0000
0015c1 0000
0015c2 0000
0015c3 0000
0015c4 0000
0015c5 c000
0015c6 f0e0
0015c7 8c98      	.db 0x00, 0x00, 0x00, 0x00, 0x00, 0x00, 0x00, 0x00, 0x00, 0x00, 0x00, 0xC0, 0xE0, 0xF0, 0x98, 0x8C
0015c8 8386
0015c9 0081
0015ca 0000
0015cb 0000
0015cc 0000
0015cd 0000
0015ce 0000
0015cf 0000      	.db 0x86, 0x83, 0x81, 0x00, 0x00, 0x00, 0x00, 0x00, 0x00, 0x00, 0x00, 0x00, 0x00, 0x00, 0x00, 0x00
0015d0 0000
0015d1 0000
0015d2 ffff
0015d3 0000
0015d4 0000
0015d5 0000
0015d6 0000
0015d7 0000      	.db 0x00, 0x00, 0x00, 0x00, 0xFF, 0xFF, 0x00, 0x00, 0x00, 0x00, 0x00, 0x00, 0x00, 0x00, 0x00, 0x00
0015d8 0000
0015d9 0000
0015da 0000
0015db 6000
0015dc 80c0
0015dd 8383
0015de fc83
0015df 007c      	.db 0x00, 0x00, 0x00, 0x00, 0x00, 0x00, 0x00, 0x60, 0xC0, 0x80, 0x83, 0x83, 0x83, 0xFC, 0x7C, 0x00
0015e0 0000
0015e1 0000
0015e2 0000
0015e3 0000
0015e4 0000
0015e5 0000
0015e6 0000
0015e7 0000      	.db 0x00, 0x00, 0x00, 0x00, 0x00, 0x00, 0x00, 0x00, 0x00, 0x00, 0x00, 0x00, 0x00, 0x00, 0x00, 0x00
0015e8 3030
0015e9 3030
0015ea 3030
0015eb 3030
0015ec 3030
0015ed 3030
0015ee 3030
0015ef 3030      	.db 0x30, 0x30, 0x30, 0x30, 0x30, 0x30, 0x30, 0x30, 0x30, 0x30, 0x30, 0x30, 0x30, 0x30, 0x30, 0x30
0015f0 3030
0015f1 3330
0015f2 3033
0015f3 3030
0015f4 3030
0015f5 3030
0015f6 3030
0015f7 3030      	.db 0x30, 0x30, 0x30, 0x33, 0x33, 0x30, 0x30, 0x30, 0x30, 0x30, 0x30, 0x30, 0x30, 0x30, 0x30, 0x30
0015f8 3030
0015f9 3030
0015fa 3030
0015fb 3030
0015fc ffff
0015fd 3030
0015fe 3030
0015ff 3030      	.db 0x30, 0x30, 0x30, 0x30, 0x30, 0x30, 0x30, 0x30, 0xFF, 0xFF, 0x30, 0x30, 0x30, 0x30, 0x30, 0x30
001600 3030
001601 3030
001602 3030
001603 3030
001604 3030
001605 3131
001606 3131
001607 3131      	.db 0x30, 0x30, 0x30, 0x30, 0x30, 0x30, 0x30, 0x30, 0x30, 0x30, 0x31, 0x31, 0x31, 0x31, 0x31, 0x31
001608 3131
001609 3031
00160a 3030
00160b 3030
00160c 3030
00160d 3030
00160e 3030
00160f 3030      	.db 0x31, 0x31, 0x31, 0x30, 0x30, 0x30, 0x30, 0x30, 0x30, 0x30, 0x30, 0x30, 0x30, 0x30, 0x30, 0x30
001610 3030
001611 3030
001612 ffff
001613 3030
001614 3030
001615 3030
001616 3030
001617 3030      	.db 0x30, 0x30, 0x30, 0x30, 0xFF, 0xFF, 0x30, 0x30, 0x30, 0x30, 0x30, 0x30, 0x30, 0x30, 0x30, 0x30
001618 3030
001619 3030
00161a 3030
00161b 3030
00161c 3030
00161d 3030
00161e 3030
00161f 3030      	.db 0x30, 0x30, 0x30, 0x30, 0x30, 0x30, 0x30, 0x30, 0x30, 0x30, 0x30, 0x30, 0x30, 0x30, 0x30, 0x30
001620 3030
001621 3030
001622 3030
001623 3030
001624 3030
001625 3030
001626 3030
001627 3030      	.db 0x30, 0x30, 0x30, 0x30, 0x30, 0x30, 0x30, 0x30, 0x30, 0x30, 0x30, 0x30, 0x30, 0x30, 0x30, 0x30
001628 0000
001629 0000
00162a 0000
00162b 0000
00162c 0000
00162d 0000
00162e 0000
00162f 0000      	.db 0x00, 0x00, 0x00, 0x00, 0x00, 0x00, 0x00, 0x00, 0x00, 0x00, 0x00, 0x00, 0x00, 0x00, 0x00, 0x00
001630 20c0
001631 0c18
001632 ffff
001633 0000
001634 0000
001635 0000
001636 0000
001637 0000      	.db 0xC0, 0x20, 0x18, 0x0C, 0xFF, 0xFF, 0x00, 0x00, 0x00, 0x00, 0x00, 0x00, 0x00, 0x00, 0x00, 0x00
001638 0000
001639 0000
00163a 0000
00163b 0000
00163c ffff
00163d 0000
00163e 0000
00163f 0000      	.db 0x00, 0x00, 0x00, 0x00, 0x00, 0x00, 0x00, 0x00, 0xFF, 0xFF, 0x00, 0x00, 0x00, 0x00, 0x00, 0x00
001640 0000
001641 0000
001642 0000
001643 0000
001644 0000
001645 7000
001646 437f
001647 6363      	.db 0x00, 0x00, 0x00, 0x00, 0x00, 0x00, 0x00, 0x00, 0x00, 0x00, 0x00, 0x70, 0x7F, 0x43, 0x63, 0x63
001648 c363
001649 0083
00164a 0000
00164b 0000
00164c 0000
00164d 0000
00164e 0000
00164f 0000      	.db 0x63, 0xC3, 0x83, 0x00, 0x00, 0x00, 0x00, 0x00, 0x00, 0x00, 0x00, 0x00, 0x00, 0x00, 0x00, 0x00
001650 0000
001651 0000
001652 ffff
001653 0000
001654 0000
001655 0000
001656 0000
001657 0000      	.db 0x00, 0x00, 0x00, 0x00, 0xFF, 0xFF, 0x00, 0x00, 0x00, 0x00, 0x00, 0x00, 0x00, 0x00, 0x00, 0x00
001658 0000
001659 0000
00165a 0000
00165b f8c0
00165c 029c
00165d 4242
00165e c642
00165f 0084      	.db 0x00, 0x00, 0x00, 0x00, 0x00, 0x00, 0xC0, 0xF8, 0x9C, 0x02, 0x42, 0x42, 0x42, 0xC6, 0x84, 0x00
001660 0000
001661 0000
001662 0000
001663 0000
001664 0000
001665 0000
001666 0000
001667 0000      	.db 0x00, 0x00, 0x00, 0x00, 0x00, 0x00, 0x00, 0x00, 0x00, 0x00, 0x00, 0x00, 0x00, 0x00, 0x00, 0x00
001668 0000
001669 0000
00166a 0000
00166b 0000
00166c 0000
00166d 0000
00166e 0000
00166f 0f0e      	.db 0x00, 0x00, 0x00, 0x00, 0x00, 0x00, 0x00, 0x00, 0x00, 0x00, 0x00, 0x00, 0x00, 0x00, 0x0E, 0x0F
001670 0c0c
001671 0c0c
001672 7f7f
001673 0c0c
001674 0000
001675 0000
001676 0000
001677 0000      	.db 0x0C, 0x0C, 0x0C, 0x0C, 0x7F, 0x7F, 0x0C, 0x0C, 0x00, 0x00, 0x00, 0x00, 0x00, 0x00, 0x00, 0x00
001678 0000
001679 0000
00167a 0000
00167b 0000
00167c ffff
00167d 0000
00167e 0000
00167f 0000      	.db 0x00, 0x00, 0x00, 0x00, 0x00, 0x00, 0x00, 0x00, 0xFF, 0xFF, 0x00, 0x00, 0x00, 0x00, 0x00, 0x00
001680 0000
001681 0000
001682 0000
001683 0000
001684 0000
001685 1800
001686 2038
001687 2020      	.db 0x00, 0x00, 0x00, 0x00, 0x00, 0x00, 0x00, 0x00, 0x00, 0x00, 0x00, 0x18, 0x38, 0x20, 0x20, 0x20
001688 3020
001689 061f
00168a 0000
00168b 0000
00168c 0000
00168d 0000
00168e 0000
00168f 0000      	.db 0x20, 0x30, 0x1F, 0x06, 0x00, 0x00, 0x00, 0x00, 0x00, 0x00, 0x00, 0x00, 0x00, 0x00, 0x00, 0x00
001690 0000
001691 0000
001692 ffff
001693 0000
001694 0000
001695 0000
001696 0000
001697 0000      	.db 0x00, 0x00, 0x00, 0x00, 0xFF, 0xFF, 0x00, 0x00, 0x00, 0x00, 0x00, 0x00, 0x00, 0x00, 0x00, 0x00
001698 0000
001699 0000
00169a 0000
00169b 0f01
00169c 301f
00169d 2020
00169e 3020
00169f 061f      	.db 0x00, 0x00, 0x00, 0x00, 0x00, 0x00, 0x01, 0x0F, 0x1F, 0x30, 0x20, 0x20, 0x20, 0x30, 0x1F, 0x06
0016a0 0000
0016a1 0000
0016a2 0000
0016a3 0000
0016a4 0000
0016a5 0000
0016a6 0000
0016a7 0000      	.db 0x00, 0x00, 0x00, 0x00, 0x00, 0x00, 0x00, 0x00, 0x00, 0x00, 0x00, 0x00, 0x00, 0x00, 0x00, 0x00
0016a8 fcfc
0016a9 fcfc
0016aa fcfc
0016ab fcfc
0016ac fcfc
0016ad fcfc
0016ae fcfc
0016af fcfc      	.db 0xFC, 0xFC, 0xFC, 0xFC, 0xFC, 0xFC, 0xFC, 0xFC, 0xFC, 0xFC, 0xFC, 0xFC, 0xFC, 0xFC, 0xFC, 0xFC
0016b0 fcfc
0016b1 fcfc
0016b2 fcfc
0016b3 fcfc
0016b4 fcfc
0016b5 fcfc
0016b6 fcfc
0016b7 fcfc      	.db 0xFC, 0xFC, 0xFC, 0xFC, 0xFC, 0xFC, 0xFC, 0xFC, 0xFC, 0xFC, 0xFC, 0xFC, 0xFC, 0xFC, 0xFC, 0xFC
0016b8 fcfc
0016b9 fcfc
0016ba fcfc
0016bb fcfc
0016bc ffff
0016bd 0404
0016be 0404
0016bf 0404      	.db 0xFC, 0xFC, 0xFC, 0xFC, 0xFC, 0xFC, 0xFC, 0xFC, 0xFF, 0xFF, 0x04, 0x04, 0x04, 0x04, 0x04, 0x04
0016c0 0404
0016c1 0404
0016c2 0404
0016c3 0404
0016c4 0404
0016c5 0404
0016c6 0404
0016c7 0404      	.db 0x04, 0x04, 0x04, 0x04, 0x04, 0x04, 0x04, 0x04, 0x04, 0x04, 0x04, 0x04, 0x04, 0x04, 0x04, 0x04
0016c8 0404
0016c9 0404
0016ca 0404
0016cb 0404
0016cc 0404
0016cd 0404
0016ce 0404
0016cf 0404      	.db 0x04, 0x04, 0x04, 0x04, 0x04, 0x04, 0x04, 0x04, 0x04, 0x04, 0x04, 0x04, 0x04, 0x04, 0x04, 0x04
0016d0 0404
0016d1 0404
0016d2 ffff
0016d3 0404
0016d4 0404
0016d5 0404
0016d6 0404
0016d7 0404      	.db 0x04, 0x04, 0x04, 0x04, 0xFF, 0xFF, 0x04, 0x04, 0x04, 0x04, 0x04, 0x04, 0x04, 0x04, 0x04, 0x04
0016d8 0404
0016d9 0404
0016da 0404
0016db 0404
0016dc 8484
0016dd 8484
0016de 0484
0016df 0404      	.db 0x04, 0x04, 0x04, 0x04, 0x04, 0x04, 0x04, 0x04, 0x84, 0x84, 0x84, 0x84, 0x84, 0x04, 0x04, 0x04
0016e0 0404
0016e1 0404
0016e2 0404
0016e3 0404
0016e4 0404
0016e5 0404
0016e6 0404
0016e7 0404      	.db 0x04, 0x04, 0x04, 0x04, 0x04, 0x04, 0x04, 0x04, 0x04, 0x04, 0x04, 0x04, 0x04, 0x04, 0x04, 0x04
0016e8 ffff
0016e9 ffff
0016ea ffff
0016eb ffff
0016ec ffff
0016ed ffff
0016ee ffff
0016ef ffff      	.db 0xFF, 0xFF, 0xFF, 0xFF, 0xFF, 0xFF, 0xFF, 0xFF, 0xFF, 0xFF, 0xFF, 0xFF, 0xFF, 0xFF, 0xFF, 0xFF
0016f0 ffff
0016f1 ffff
0016f2 ffff
0016f3 ffff
0016f4 ffff
0016f5 ffff
0016f6 ffff
0016f7 ffff      	.db 0xFF, 0xFF, 0xFF, 0xFF, 0xFF, 0xFF, 0xFF, 0xFF, 0xFF, 0xFF, 0xFF, 0xFF, 0xFF, 0xFF, 0xFF, 0xFF
0016f8 ffff
0016f9 ffff
0016fa ffff
0016fb ffff
0016fc ffff
0016fd 0000
0016fe 0000
0016ff 0000      	.db 0xFF, 0xFF, 0xFF, 0xFF, 0xFF, 0xFF, 0xFF, 0xFF, 0xFF, 0xFF, 0x00, 0x00, 0x00, 0x00, 0x00, 0x00
001700 0000
001701 0000
001702 0000
001703 0000
001704 0000
001705 8e00
001706 61df
001707 6161      	.db 0x00, 0x00, 0x00, 0x00, 0x00, 0x00, 0x00, 0x00, 0x00, 0x00, 0x00, 0x8E, 0xDF, 0x61, 0x61, 0x61
001708 9f61
001709 008e
00170a 0000
00170b 0000
00170c 0000
00170d 0000
00170e 0000
00170f 0000      	.db 0x61, 0x9F, 0x8E, 0x00, 0x00, 0x00, 0x00, 0x00, 0x00, 0x00, 0x00, 0x00, 0x00, 0x00, 0x00, 0x00
001710 0000
001711 0000
001712 ffff
001713 0000
001714 0000
001715 0000
001716 0000
001717 0000      	.db 0x00, 0x00, 0x00, 0x00, 0xFF, 0xFF, 0x00, 0x00, 0x00, 0x00, 0x00, 0x00, 0x00, 0x00, 0x00, 0x00
001718 0000
001719 0000
00171a 0000
00171b 3f1e
00171c 4061
00171d 4040
00171e ff01
00171f 00fe      	.db 0x00, 0x00, 0x00, 0x00, 0x00, 0x00, 0x1E, 0x3F, 0x61, 0x40, 0x40, 0x40, 0x01, 0xFF, 0xFE, 0x00
001720 0000
001721 0000
001722 0000
001723 0000
001724 0000
001725 0000
001726 0000
001727 0000      	.db 0x00, 0x00, 0x00, 0x00, 0x00, 0x00, 0x00, 0x00, 0x00, 0x00, 0x00, 0x00, 0x00, 0x00, 0x00, 0x00
001728 ffff
001729 ffff
00172a ffff
00172b ffff
00172c ffff
00172d ffff
00172e ffff
00172f ffff      	.db 0xFF, 0xFF, 0xFF, 0xFF, 0xFF, 0xFF, 0xFF, 0xFF, 0xFF, 0xFF, 0xFF, 0xFF, 0xFF, 0xFF, 0xFF, 0xFF
001730 ffff
001731 ffff
001732 ffff
001733 ffff
001734 ffff
001735 ffff
001736 ffff
001737 ffff      	.db 0xFF, 0xFF, 0xFF, 0xFF, 0xFF, 0xFF, 0xFF, 0xFF, 0xFF, 0xFF, 0xFF, 0xFF, 0xFF, 0xFF, 0xFF, 0xFF
001738 ffff
001739 ffff
00173a ffff
00173b ffff
00173c ffff
00173d 0000
00173e 0000
00173f 0000      	.db 0xFF, 0xFF, 0xFF, 0xFF, 0xFF, 0xFF, 0xFF, 0xFF, 0xFF, 0xFF, 0x00, 0x00, 0x00, 0x00, 0x00, 0x00
001740 0000
001741 0000
001742 0000
001743 0000
001744 0000
001745 0f02
001746 1018
001747 1010      	.db 0x00, 0x00, 0x00, 0x00, 0x00, 0x00, 0x00, 0x00, 0x00, 0x00, 0x02, 0x0F, 0x18, 0x10, 0x10, 0x10
001748 1f10
001749 000f
00174a 0000
00174b 0000
00174c 0000
00174d 0000
00174e 0000
00174f 0000      	.db 0x10, 0x1F, 0x0F, 0x00, 0x00, 0x00, 0x00, 0x00, 0x00, 0x00, 0x00, 0x00, 0x00, 0x00, 0x00, 0x00
001750 0000
001751 0000
001752 ffff
001753 0000
001754 0000
001755 0000
001756 0000
001757 0000      	.db 0x00, 0x00, 0x00, 0x00, 0xFF, 0xFF, 0x00, 0x00, 0x00, 0x00, 0x00, 0x00, 0x00, 0x00, 0x00, 0x00
001758 0000
001759 0000
00175a 0000
00175b 0400
00175c 080c
00175d 0808
00175e 070c
00175f 0003      	.db 0x00, 0x00, 0x00, 0x00, 0x00, 0x00, 0x00, 0x04, 0x0C, 0x08, 0x08, 0x08, 0x0C, 0x07, 0x03, 0x00
001760 0000
001761 0000
001762 0000
001763 0000
001764 0000
001765 0000
001766 0000
001767 0000      	.db 0x00, 0x00, 0x00, 0x00, 0x00, 0x00, 0x00, 0x00, 0x00, 0x00, 0x00, 0x00, 0x00, 0x00, 0x00, 0x00
                 
                 
                 Numero8:
                 
001768 0000
001769 0000
00176a 0000
00176b 0000
00176c 0000
00176d 0000
00176e 0000
00176f 8000      	.db 0x00, 0x00, 0x00, 0x00, 0x00, 0x00, 0x00, 0x00, 0x00, 0x00, 0x00, 0x00, 0x00, 0x00, 0x00, 0x80
001770 4080
001771 f860
001772 00f8
001773 0000
001774 0000
001775 0000
001776 0000
001777 0000      	.db 0x80, 0x40, 0x60, 0xF8, 0xF8, 0x00, 0x00, 0x00, 0x00, 0x00, 0x00, 0x00, 0x00, 0x00, 0x00, 0x00
001778 0000
001779 0000
00177a 0000
00177b 0000
00177c ffff
00177d 0000
00177e 0000
00177f 0000      	.db 0x00, 0x00, 0x00, 0x00, 0x00, 0x00, 0x00, 0x00, 0xFF, 0xFF, 0x00, 0x00, 0x00, 0x00, 0x00, 0x00
001780 0000
001781 0000
001782 0000
001783 0000
001784 0000
001785 3000
001786 0818
001787 0808      	.db 0x00, 0x00, 0x00, 0x00, 0x00, 0x00, 0x00, 0x00, 0x00, 0x00, 0x00, 0x30, 0x18, 0x08, 0x08, 0x08
001788 f808
001789 00f0
00178a 0000
00178b 0000
00178c 0000
00178d 0000
00178e 0000
00178f 0000      	.db 0x08, 0xF8, 0xF0, 0x00, 0x00, 0x00, 0x00, 0x00, 0x00, 0x00, 0x00, 0x00, 0x00, 0x00, 0x00, 0x00
001790 0000
001791 0000
001792 ffff
001793 0000
001794 0000
001795 0000
001796 0000
001797 0000      	.db 0x00, 0x00, 0x00, 0x00, 0xFF, 0xFF, 0x00, 0x00, 0x00, 0x00, 0x00, 0x00, 0x00, 0x00, 0x00, 0x00
001798 0000
001799 0000
00179a 0000
00179b 3000
00179c 0818
00179d 0808
00179e f098
00179f 0060      	.db 0x00, 0x00, 0x00, 0x00, 0x00, 0x00, 0x00, 0x30, 0x18, 0x08, 0x08, 0x08, 0x98, 0xF0, 0x60, 0x00
0017a0 0000
0017a1 0000
0017a2 0000
0017a3 0000
0017a4 0000
0017a5 0000
0017a6 0000
0017a7 0000      	.db 0x00, 0x00, 0x00, 0x00, 0x00, 0x00, 0x00, 0x00, 0x00, 0x00, 0x00, 0x00, 0x00, 0x00, 0x00, 0x00
0017a8 0000
0017a9 0000
0017aa 0000
0017ab 0000
0017ac 0000
0017ad 0000
0017ae 0000
0017af 0000      	.db 0x00, 0x00, 0x00, 0x00, 0x00, 0x00, 0x00, 0x00, 0x00, 0x00, 0x00, 0x00, 0x00, 0x00, 0x00, 0x00
0017b0 0000
0017b1 ff00
0017b2 00ff
0017b3 0000
0017b4 0000
0017b5 0000
0017b6 0000
0017b7 0000      	.db 0x00, 0x00, 0x00, 0xFF, 0xFF, 0x00, 0x00, 0x00, 0x00, 0x00, 0x00, 0x00, 0x00, 0x00, 0x00, 0x00
0017b8 0000
0017b9 0000
0017ba 0000
0017bb 0000
0017bc ffff
0017bd 0000
0017be 0000
0017bf 0000      	.db 0x00, 0x00, 0x00, 0x00, 0x00, 0x00, 0x00, 0x00, 0xFF, 0xFF, 0x00, 0x00, 0x00, 0x00, 0x00, 0x00
0017c0 0000
0017c1 0000
0017c2 0000
0017c3 0000
0017c4 0000
0017c5 c000
0017c6 f0e0
0017c7 8c98      	.db 0x00, 0x00, 0x00, 0x00, 0x00, 0x00, 0x00, 0x00, 0x00, 0x00, 0x00, 0xC0, 0xE0, 0xF0, 0x98, 0x8C
0017c8 8386
0017c9 0081
0017ca 0000
0017cb 0000
0017cc 0000
0017cd 0000
0017ce 0000
0017cf 0000      	.db 0x86, 0x83, 0x81, 0x00, 0x00, 0x00, 0x00, 0x00, 0x00, 0x00, 0x00, 0x00, 0x00, 0x00, 0x00, 0x00
0017d0 0000
0017d1 0000
0017d2 ffff
0017d3 0000
0017d4 0000
0017d5 0000
0017d6 0000
0017d7 0000      	.db 0x00, 0x00, 0x00, 0x00, 0xFF, 0xFF, 0x00, 0x00, 0x00, 0x00, 0x00, 0x00, 0x00, 0x00, 0x00, 0x00
0017d8 0000
0017d9 0000
0017da 0000
0017db 6000
0017dc 80c0
0017dd 8383
0017de fc83
0017df 007c      	.db 0x00, 0x00, 0x00, 0x00, 0x00, 0x00, 0x00, 0x60, 0xC0, 0x80, 0x83, 0x83, 0x83, 0xFC, 0x7C, 0x00
0017e0 0000
0017e1 0000
0017e2 0000
0017e3 0000
0017e4 0000
0017e5 0000
0017e6 0000
0017e7 0000      	.db 0x00, 0x00, 0x00, 0x00, 0x00, 0x00, 0x00, 0x00, 0x00, 0x00, 0x00, 0x00, 0x00, 0x00, 0x00, 0x00
0017e8 3030
0017e9 3030
0017ea 3030
0017eb 3030
0017ec 3030
0017ed 3030
0017ee 3030
0017ef 3030      	.db 0x30, 0x30, 0x30, 0x30, 0x30, 0x30, 0x30, 0x30, 0x30, 0x30, 0x30, 0x30, 0x30, 0x30, 0x30, 0x30
0017f0 3030
0017f1 3330
0017f2 3033
0017f3 3030
0017f4 3030
0017f5 3030
0017f6 3030
0017f7 3030      	.db 0x30, 0x30, 0x30, 0x33, 0x33, 0x30, 0x30, 0x30, 0x30, 0x30, 0x30, 0x30, 0x30, 0x30, 0x30, 0x30
0017f8 3030
0017f9 3030
0017fa 3030
0017fb 3030
0017fc ffff
0017fd 3030
0017fe 3030
0017ff 3030      	.db 0x30, 0x30, 0x30, 0x30, 0x30, 0x30, 0x30, 0x30, 0xFF, 0xFF, 0x30, 0x30, 0x30, 0x30, 0x30, 0x30
001800 3030
001801 3030
001802 3030
001803 3030
001804 3030
001805 3131
001806 3131
001807 3131      	.db 0x30, 0x30, 0x30, 0x30, 0x30, 0x30, 0x30, 0x30, 0x30, 0x30, 0x31, 0x31, 0x31, 0x31, 0x31, 0x31
001808 3131
001809 3031
00180a 3030
00180b 3030
00180c 3030
00180d 3030
00180e 3030
00180f 3030      	.db 0x31, 0x31, 0x31, 0x30, 0x30, 0x30, 0x30, 0x30, 0x30, 0x30, 0x30, 0x30, 0x30, 0x30, 0x30, 0x30
001810 3030
001811 3030
001812 ffff
001813 3030
001814 3030
001815 3030
001816 3030
001817 3030      	.db 0x30, 0x30, 0x30, 0x30, 0xFF, 0xFF, 0x30, 0x30, 0x30, 0x30, 0x30, 0x30, 0x30, 0x30, 0x30, 0x30
001818 3030
001819 3030
00181a 3030
00181b 3030
00181c 3030
00181d 3030
00181e 3030
00181f 3030      	.db 0x30, 0x30, 0x30, 0x30, 0x30, 0x30, 0x30, 0x30, 0x30, 0x30, 0x30, 0x30, 0x30, 0x30, 0x30, 0x30
001820 3030
001821 3030
001822 3030
001823 3030
001824 3030
001825 3030
001826 3030
001827 3030      	.db 0x30, 0x30, 0x30, 0x30, 0x30, 0x30, 0x30, 0x30, 0x30, 0x30, 0x30, 0x30, 0x30, 0x30, 0x30, 0x30
001828 0000
001829 0000
00182a 0000
00182b 0000
00182c 0000
00182d 0000
00182e 0000
00182f 0000      	.db 0x00, 0x00, 0x00, 0x00, 0x00, 0x00, 0x00, 0x00, 0x00, 0x00, 0x00, 0x00, 0x00, 0x00, 0x00, 0x00
001830 20c0
001831 0c18
001832 ffff
001833 0000
001834 0000
001835 0000
001836 0000
001837 0000      	.db 0xC0, 0x20, 0x18, 0x0C, 0xFF, 0xFF, 0x00, 0x00, 0x00, 0x00, 0x00, 0x00, 0x00, 0x00, 0x00, 0x00
001838 0000
001839 0000
00183a 0000
00183b 0000
00183c ffff
00183d 0000
00183e 0000
00183f 0000      	.db 0x00, 0x00, 0x00, 0x00, 0x00, 0x00, 0x00, 0x00, 0xFF, 0xFF, 0x00, 0x00, 0x00, 0x00, 0x00, 0x00
001840 0000
001841 0000
001842 0000
001843 0000
001844 0000
001845 7000
001846 437f
001847 6363      	.db 0x00, 0x00, 0x00, 0x00, 0x00, 0x00, 0x00, 0x00, 0x00, 0x00, 0x00, 0x70, 0x7F, 0x43, 0x63, 0x63
001848 c363
001849 0083
00184a 0000
00184b 0000
00184c 0000
00184d 0000
00184e 0000
00184f 0000      	.db 0x63, 0xC3, 0x83, 0x00, 0x00, 0x00, 0x00, 0x00, 0x00, 0x00, 0x00, 0x00, 0x00, 0x00, 0x00, 0x00
001850 0000
001851 0000
001852 ffff
001853 0000
001854 0000
001855 0000
001856 0000
001857 0000      	.db 0x00, 0x00, 0x00, 0x00, 0xFF, 0xFF, 0x00, 0x00, 0x00, 0x00, 0x00, 0x00, 0x00, 0x00, 0x00, 0x00
001858 0000
001859 0000
00185a 0000
00185b f8c0
00185c 029c
00185d 4242
00185e c642
00185f 0084      	.db 0x00, 0x00, 0x00, 0x00, 0x00, 0x00, 0xC0, 0xF8, 0x9C, 0x02, 0x42, 0x42, 0x42, 0xC6, 0x84, 0x00
001860 0000
001861 0000
001862 0000
001863 0000
001864 0000
001865 0000
001866 0000
001867 0000      	.db 0x00, 0x00, 0x00, 0x00, 0x00, 0x00, 0x00, 0x00, 0x00, 0x00, 0x00, 0x00, 0x00, 0x00, 0x00, 0x00
001868 0000
001869 0000
00186a 0000
00186b 0000
00186c 0000
00186d 0000
00186e 0000
00186f 0f0e      	.db 0x00, 0x00, 0x00, 0x00, 0x00, 0x00, 0x00, 0x00, 0x00, 0x00, 0x00, 0x00, 0x00, 0x00, 0x0E, 0x0F
001870 0c0c
001871 0c0c
001872 7f7f
001873 0c0c
001874 0000
001875 0000
001876 0000
001877 0000      	.db 0x0C, 0x0C, 0x0C, 0x0C, 0x7F, 0x7F, 0x0C, 0x0C, 0x00, 0x00, 0x00, 0x00, 0x00, 0x00, 0x00, 0x00
001878 0000
001879 0000
00187a 0000
00187b 0000
00187c ffff
00187d 0000
00187e 0000
00187f 0000      	.db 0x00, 0x00, 0x00, 0x00, 0x00, 0x00, 0x00, 0x00, 0xFF, 0xFF, 0x00, 0x00, 0x00, 0x00, 0x00, 0x00
001880 0000
001881 0000
001882 0000
001883 0000
001884 0000
001885 1800
001886 2038
001887 2020      	.db 0x00, 0x00, 0x00, 0x00, 0x00, 0x00, 0x00, 0x00, 0x00, 0x00, 0x00, 0x18, 0x38, 0x20, 0x20, 0x20
001888 3020
001889 061f
00188a 0000
00188b 0000
00188c 0000
00188d 0000
00188e 0000
00188f 0000      	.db 0x20, 0x30, 0x1F, 0x06, 0x00, 0x00, 0x00, 0x00, 0x00, 0x00, 0x00, 0x00, 0x00, 0x00, 0x00, 0x00
001890 0000
001891 0000
001892 ffff
001893 0000
001894 0000
001895 0000
001896 0000
001897 0000      	.db 0x00, 0x00, 0x00, 0x00, 0xFF, 0xFF, 0x00, 0x00, 0x00, 0x00, 0x00, 0x00, 0x00, 0x00, 0x00, 0x00
001898 0000
001899 0000
00189a 0000
00189b 0f01
00189c 301f
00189d 2020
00189e 3020
00189f 061f      	.db 0x00, 0x00, 0x00, 0x00, 0x00, 0x00, 0x01, 0x0F, 0x1F, 0x30, 0x20, 0x20, 0x20, 0x30, 0x1F, 0x06
0018a0 0000
0018a1 0000
0018a2 0000
0018a3 0000
0018a4 0000
0018a5 0000
0018a6 0000
0018a7 0000      	.db 0x00, 0x00, 0x00, 0x00, 0x00, 0x00, 0x00, 0x00, 0x00, 0x00, 0x00, 0x00, 0x00, 0x00, 0x00, 0x00
0018a8 0404
0018a9 0404
0018aa 0404
0018ab 0404
0018ac 0404
0018ad 0404
0018ae 0404
0018af c4c4      	.db 0x04, 0x04, 0x04, 0x04, 0x04, 0x04, 0x04, 0x04, 0x04, 0x04, 0x04, 0x04, 0x04, 0x04, 0xC4, 0xC4
0018b0 c4c4
0018b1 c4c4
0018b2 c4c4
0018b3 04c4
0018b4 0404
0018b5 0404
0018b6 0404
0018b7 0404      	.db 0xC4, 0xC4, 0xC4, 0xC4, 0xC4, 0xC4, 0xC4, 0x04, 0x04, 0x04, 0x04, 0x04, 0x04, 0x04, 0x04, 0x04
0018b8 0404
0018b9 0404
0018ba 0404
0018bb 0404
0018bc ffff
0018bd f4f4
0018be f4f4
0018bf f4f4      	.db 0x04, 0x04, 0x04, 0x04, 0x04, 0x04, 0x04, 0x04, 0xFF, 0xFF, 0xF4, 0xF4, 0xF4, 0xF4, 0xF4, 0xF4
0018c0 f4f4
0018c1 f4f4
0018c2 f4f4
0018c3 f4f4
0018c4 f4f4
0018c5 f4f4
0018c6 f4f4
0018c7 f4f4      	.db 0xF4, 0xF4, 0xF4, 0xF4, 0xF4, 0xF4, 0xF4, 0xF4, 0xF4, 0xF4, 0xF4, 0xF4, 0xF4, 0xF4, 0xF4, 0xF4
0018c8 f4f4
0018c9 f4f4
0018ca f4f4
0018cb f4f4
0018cc f4f4
0018cd f4f4
0018ce f4f4
0018cf f4f4      	.db 0xF4, 0xF4, 0xF4, 0xF4, 0xF4, 0xF4, 0xF4, 0xF4, 0xF4, 0xF4, 0xF4, 0xF4, 0xF4, 0xF4, 0xF4, 0xF4
0018d0 f4f4
0018d1 f4f4
0018d2 ffff
0018d3 0404
0018d4 0404
0018d5 0404
0018d6 0404
0018d7 0404      	.db 0xF4, 0xF4, 0xF4, 0xF4, 0xFF, 0xFF, 0x04, 0x04, 0x04, 0x04, 0x04, 0x04, 0x04, 0x04, 0x04, 0x04
0018d8 0404
0018d9 0404
0018da 0404
0018db 0404
0018dc 8484
0018dd 8484
0018de 0484
0018df 0404      	.db 0x04, 0x04, 0x04, 0x04, 0x04, 0x04, 0x04, 0x04, 0x84, 0x84, 0x84, 0x84, 0x84, 0x04, 0x04, 0x04
0018e0 0404
0018e1 0404
0018e2 0404
0018e3 0404
0018e4 0404
0018e5 0404
0018e6 0404
0018e7 0404      	.db 0x04, 0x04, 0x04, 0x04, 0x04, 0x04, 0x04, 0x04, 0x04, 0x04, 0x04, 0x04, 0x04, 0x04, 0x04, 0x04
0018e8 0000
0018e9 0000
0018ea 0000
0018eb 0000
0018ec 0000
0018ed 0000
0018ee 0000
0018ef 0000      	.db 0x00, 0x00, 0x00, 0x00, 0x00, 0x00, 0x00, 0x00, 0x00, 0x00, 0x00, 0x00, 0x00, 0x00, 0x00, 0x00
0018f0 0000
0018f1 38e0
0018f2 030c
0018f3 0001
0018f4 0000
0018f5 0000
0018f6 0000
0018f7 0000      	.db 0x00, 0x00, 0xE0, 0x38, 0x0C, 0x03, 0x01, 0x00, 0x00, 0x00, 0x00, 0x00, 0x00, 0x00, 0x00, 0x00
0018f8 0000
0018f9 0000
0018fa 0000
0018fb 0000
0018fc ffff
0018fd ffff
0018fe ffff
0018ff ffff      	.db 0x00, 0x00, 0x00, 0x00, 0x00, 0x00, 0x00, 0x00, 0xFF, 0xFF, 0xFF, 0xFF, 0xFF, 0xFF, 0xFF, 0xFF
001900 ffff
001901 ffff
001902 ffff
001903 ffff
001904 ffff
001905 ffff
001906 ffff
001907 ffff      	.db 0xFF, 0xFF, 0xFF, 0xFF, 0xFF, 0xFF, 0xFF, 0xFF, 0xFF, 0xFF, 0xFF, 0xFF, 0xFF, 0xFF, 0xFF, 0xFF
001908 ffff
001909 ffff
00190a ffff
00190b ffff
00190c ffff
00190d ffff
00190e ffff
00190f ffff      	.db 0xFF, 0xFF, 0xFF, 0xFF, 0xFF, 0xFF, 0xFF, 0xFF, 0xFF, 0xFF, 0xFF, 0xFF, 0xFF, 0xFF, 0xFF, 0xFF
001910 ffff
001911 ffff
001912 ffff
001913 0000
001914 0000
001915 0000
001916 0000
001917 0000      	.db 0xFF, 0xFF, 0xFF, 0xFF, 0xFF, 0xFF, 0x00, 0x00, 0x00, 0x00, 0x00, 0x00, 0x00, 0x00, 0x00, 0x00
001918 0000
001919 0000
00191a 0000
00191b 3f1e
00191c 4061
00191d 4040
00191e ff01
00191f 00fe      	.db 0x00, 0x00, 0x00, 0x00, 0x00, 0x00, 0x1E, 0x3F, 0x61, 0x40, 0x40, 0x40, 0x01, 0xFF, 0xFE, 0x00
001920 0000
001921 0000
001922 0000
001923 0000
001924 0000
001925 0000
001926 0000
001927 0000      	.db 0x00, 0x00, 0x00, 0x00, 0x00, 0x00, 0x00, 0x00, 0x00, 0x00, 0x00, 0x00, 0x00, 0x00, 0x00, 0x00
001928 0000
001929 0000
00192a 0000
00192b 0000
00192c 0000
00192d 0000
00192e 0000
00192f 0000      	.db 0x00, 0x00, 0x00, 0x00, 0x00, 0x00, 0x00, 0x00, 0x00, 0x00, 0x00, 0x00, 0x00, 0x00, 0x00, 0x00
001930 1f10
001931 0003
001932 0000
001933 0000
001934 0000
001935 0000
001936 0000
001937 0000      	.db 0x10, 0x1F, 0x03, 0x00, 0x00, 0x00, 0x00, 0x00, 0x00, 0x00, 0x00, 0x00, 0x00, 0x00, 0x00, 0x00
001938 0000
001939 0000
00193a 0000
00193b 0000
00193c ffff
00193d ffff
00193e ffff
00193f ffff      	.db 0x00, 0x00, 0x00, 0x00, 0x00, 0x00, 0x00, 0x00, 0xFF, 0xFF, 0xFF, 0xFF, 0xFF, 0xFF, 0xFF, 0xFF
001940 ffff
001941 ffff
001942 ffff
001943 ffff
001944 ffff
001945 ffff
001946 ffff
001947 ffff      	.db 0xFF, 0xFF, 0xFF, 0xFF, 0xFF, 0xFF, 0xFF, 0xFF, 0xFF, 0xFF, 0xFF, 0xFF, 0xFF, 0xFF, 0xFF, 0xFF
001948 ffff
001949 ffff
00194a ffff
00194b ffff
00194c ffff
00194d ffff
00194e ffff
00194f ffff      	.db 0xFF, 0xFF, 0xFF, 0xFF, 0xFF, 0xFF, 0xFF, 0xFF, 0xFF, 0xFF, 0xFF, 0xFF, 0xFF, 0xFF, 0xFF, 0xFF
001950 ffff
001951 ffff
001952 ffff
001953 0000
001954 0000
001955 0000
001956 0000
001957 0000      	.db 0xFF, 0xFF, 0xFF, 0xFF, 0xFF, 0xFF, 0x00, 0x00, 0x00, 0x00, 0x00, 0x00, 0x00, 0x00, 0x00, 0x00
001958 0000
001959 0000
00195a 0000
00195b 0400
00195c 080c
00195d 0808
00195e 070c
00195f 0003      	.db 0x00, 0x00, 0x00, 0x00, 0x00, 0x00, 0x00, 0x04, 0x0C, 0x08, 0x08, 0x08, 0x0C, 0x07, 0x03, 0x00
001960 0000
001961 0000
001962 0000
001963 0000
001964 0000
001965 0000
001966 0000
001967 0000      	.db 0x00, 0x00, 0x00, 0x00, 0x00, 0x00, 0x00, 0x00, 0x00, 0x00, 0x00, 0x00, 0x00, 0x00, 0x00, 0x00
                 
                 
                 Numero9:
                 
001968 0000
001969 0000
00196a 0000
00196b 0000
00196c 0000
00196d 0000
00196e 0000
00196f 8000      	.db 0x00, 0x00, 0x00, 0x00, 0x00, 0x00, 0x00, 0x00, 0x00, 0x00, 0x00, 0x00, 0x00, 0x00, 0x00, 0x80
001970 4080
001971 f860
001972 00f8
001973 0000
001974 0000
001975 0000
001976 0000
001977 0000      	.db 0x80, 0x40, 0x60, 0xF8, 0xF8, 0x00, 0x00, 0x00, 0x00, 0x00, 0x00, 0x00, 0x00, 0x00, 0x00, 0x00
001978 0000
001979 0000
00197a 0000
00197b 0000
00197c ffff
00197d 0000
00197e 0000
00197f 0000      	.db 0x00, 0x00, 0x00, 0x00, 0x00, 0x00, 0x00, 0x00, 0xFF, 0xFF, 0x00, 0x00, 0x00, 0x00, 0x00, 0x00
001980 0000
001981 0000
001982 0000
001983 0000
001984 0000
001985 3000
001986 0818
001987 0808      	.db 0x00, 0x00, 0x00, 0x00, 0x00, 0x00, 0x00, 0x00, 0x00, 0x00, 0x00, 0x30, 0x18, 0x08, 0x08, 0x08
001988 f808
001989 00f0
00198a 0000
00198b 0000
00198c 0000
00198d 0000
00198e 0000
00198f 0000      	.db 0x08, 0xF8, 0xF0, 0x00, 0x00, 0x00, 0x00, 0x00, 0x00, 0x00, 0x00, 0x00, 0x00, 0x00, 0x00, 0x00
001990 0000
001991 0000
001992 ffff
001993 0000
001994 0000
001995 0000
001996 0000
001997 0000      	.db 0x00, 0x00, 0x00, 0x00, 0xFF, 0xFF, 0x00, 0x00, 0x00, 0x00, 0x00, 0x00, 0x00, 0x00, 0x00, 0x00
001998 0000
001999 0000
00199a 0000
00199b 3000
00199c 0818
00199d 0808
00199e f098
00199f 0060      	.db 0x00, 0x00, 0x00, 0x00, 0x00, 0x00, 0x00, 0x30, 0x18, 0x08, 0x08, 0x08, 0x98, 0xF0, 0x60, 0x00
0019a0 0000
0019a1 0000
0019a2 0000
0019a3 0000
0019a4 0000
0019a5 0000
0019a6 0000
0019a7 0000      	.db 0x00, 0x00, 0x00, 0x00, 0x00, 0x00, 0x00, 0x00, 0x00, 0x00, 0x00, 0x00, 0x00, 0x00, 0x00, 0x00
0019a8 0000
0019a9 0000
0019aa 0000
0019ab 0000
0019ac 0000
0019ad 0000
0019ae 0000
0019af 0000      	.db 0x00, 0x00, 0x00, 0x00, 0x00, 0x00, 0x00, 0x00, 0x00, 0x00, 0x00, 0x00, 0x00, 0x00, 0x00, 0x00
0019b0 0000
0019b1 ff00
0019b2 00ff
0019b3 0000
0019b4 0000
0019b5 0000
0019b6 0000
0019b7 0000      	.db 0x00, 0x00, 0x00, 0xFF, 0xFF, 0x00, 0x00, 0x00, 0x00, 0x00, 0x00, 0x00, 0x00, 0x00, 0x00, 0x00
0019b8 0000
0019b9 0000
0019ba 0000
0019bb 0000
0019bc ffff
0019bd 0000
0019be 0000
0019bf 0000      	.db 0x00, 0x00, 0x00, 0x00, 0x00, 0x00, 0x00, 0x00, 0xFF, 0xFF, 0x00, 0x00, 0x00, 0x00, 0x00, 0x00
0019c0 0000
0019c1 0000
0019c2 0000
0019c3 0000
0019c4 0000
0019c5 c000
0019c6 f0e0
0019c7 8c98      	.db 0x00, 0x00, 0x00, 0x00, 0x00, 0x00, 0x00, 0x00, 0x00, 0x00, 0x00, 0xC0, 0xE0, 0xF0, 0x98, 0x8C
0019c8 8386
0019c9 0081
0019ca 0000
0019cb 0000
0019cc 0000
0019cd 0000
0019ce 0000
0019cf 0000      	.db 0x86, 0x83, 0x81, 0x00, 0x00, 0x00, 0x00, 0x00, 0x00, 0x00, 0x00, 0x00, 0x00, 0x00, 0x00, 0x00
0019d0 0000
0019d1 0000
0019d2 ffff
0019d3 0000
0019d4 0000
0019d5 0000
0019d6 0000
0019d7 0000      	.db 0x00, 0x00, 0x00, 0x00, 0xFF, 0xFF, 0x00, 0x00, 0x00, 0x00, 0x00, 0x00, 0x00, 0x00, 0x00, 0x00
0019d8 0000
0019d9 0000
0019da 0000
0019db 6000
0019dc 80c0
0019dd 8383
0019de fc83
0019df 007c      	.db 0x00, 0x00, 0x00, 0x00, 0x00, 0x00, 0x00, 0x60, 0xC0, 0x80, 0x83, 0x83, 0x83, 0xFC, 0x7C, 0x00
0019e0 0000
0019e1 0000
0019e2 0000
0019e3 0000
0019e4 0000
0019e5 0000
0019e6 0000
0019e7 0000      	.db 0x00, 0x00, 0x00, 0x00, 0x00, 0x00, 0x00, 0x00, 0x00, 0x00, 0x00, 0x00, 0x00, 0x00, 0x00, 0x00
0019e8 3030
0019e9 3030
0019ea 3030
0019eb 3030
0019ec 3030
0019ed 3030
0019ee 3030
0019ef 3030      	.db 0x30, 0x30, 0x30, 0x30, 0x30, 0x30, 0x30, 0x30, 0x30, 0x30, 0x30, 0x30, 0x30, 0x30, 0x30, 0x30
0019f0 3030
0019f1 3330
0019f2 3033
0019f3 3030
0019f4 3030
0019f5 3030
0019f6 3030
0019f7 3030      	.db 0x30, 0x30, 0x30, 0x33, 0x33, 0x30, 0x30, 0x30, 0x30, 0x30, 0x30, 0x30, 0x30, 0x30, 0x30, 0x30
0019f8 3030
0019f9 3030
0019fa 3030
0019fb 3030
0019fc ffff
0019fd 3030
0019fe 3030
0019ff 3030      	.db 0x30, 0x30, 0x30, 0x30, 0x30, 0x30, 0x30, 0x30, 0xFF, 0xFF, 0x30, 0x30, 0x30, 0x30, 0x30, 0x30
001a00 3030
001a01 3030
001a02 3030
001a03 3030
001a04 3030
001a05 3131
001a06 3131
001a07 3131      	.db 0x30, 0x30, 0x30, 0x30, 0x30, 0x30, 0x30, 0x30, 0x30, 0x30, 0x31, 0x31, 0x31, 0x31, 0x31, 0x31
001a08 3131
001a09 3031
001a0a 3030
001a0b 3030
001a0c 3030
001a0d 3030
001a0e 3030
001a0f 3030      	.db 0x31, 0x31, 0x31, 0x30, 0x30, 0x30, 0x30, 0x30, 0x30, 0x30, 0x30, 0x30, 0x30, 0x30, 0x30, 0x30
001a10 3030
001a11 3030
001a12 ffff
001a13 3030
001a14 3030
001a15 3030
001a16 3030
001a17 3030      	.db 0x30, 0x30, 0x30, 0x30, 0xFF, 0xFF, 0x30, 0x30, 0x30, 0x30, 0x30, 0x30, 0x30, 0x30, 0x30, 0x30
001a18 3030
001a19 3030
001a1a 3030
001a1b 3030
001a1c 3030
001a1d 3030
001a1e 3030
001a1f 3030      	.db 0x30, 0x30, 0x30, 0x30, 0x30, 0x30, 0x30, 0x30, 0x30, 0x30, 0x30, 0x30, 0x30, 0x30, 0x30, 0x30
001a20 3030
001a21 3030
001a22 3030
001a23 3030
001a24 3030
001a25 3030
001a26 3030
001a27 3030      	.db 0x30, 0x30, 0x30, 0x30, 0x30, 0x30, 0x30, 0x30, 0x30, 0x30, 0x30, 0x30, 0x30, 0x30, 0x30, 0x30
001a28 0000
001a29 0000
001a2a 0000
001a2b 0000
001a2c 0000
001a2d 0000
001a2e 0000
001a2f 0000      	.db 0x00, 0x00, 0x00, 0x00, 0x00, 0x00, 0x00, 0x00, 0x00, 0x00, 0x00, 0x00, 0x00, 0x00, 0x00, 0x00
001a30 20c0
001a31 0c18
001a32 ffff
001a33 0000
001a34 0000
001a35 0000
001a36 0000
001a37 0000      	.db 0xC0, 0x20, 0x18, 0x0C, 0xFF, 0xFF, 0x00, 0x00, 0x00, 0x00, 0x00, 0x00, 0x00, 0x00, 0x00, 0x00
001a38 0000
001a39 0000
001a3a 0000
001a3b 0000
001a3c ffff
001a3d 0000
001a3e 0000
001a3f 0000      	.db 0x00, 0x00, 0x00, 0x00, 0x00, 0x00, 0x00, 0x00, 0xFF, 0xFF, 0x00, 0x00, 0x00, 0x00, 0x00, 0x00
001a40 0000
001a41 0000
001a42 0000
001a43 0000
001a44 0000
001a45 7000
001a46 437f
001a47 6363      	.db 0x00, 0x00, 0x00, 0x00, 0x00, 0x00, 0x00, 0x00, 0x00, 0x00, 0x00, 0x70, 0x7F, 0x43, 0x63, 0x63
001a48 c363
001a49 0083
001a4a 0000
001a4b 0000
001a4c 0000
001a4d 0000
001a4e 0000
001a4f 0000      	.db 0x63, 0xC3, 0x83, 0x00, 0x00, 0x00, 0x00, 0x00, 0x00, 0x00, 0x00, 0x00, 0x00, 0x00, 0x00, 0x00
001a50 0000
001a51 0000
001a52 ffff
001a53 0000
001a54 0000
001a55 0000
001a56 0000
001a57 0000      	.db 0x00, 0x00, 0x00, 0x00, 0xFF, 0xFF, 0x00, 0x00, 0x00, 0x00, 0x00, 0x00, 0x00, 0x00, 0x00, 0x00
001a58 0000
001a59 0000
001a5a 0000
001a5b f8c0
001a5c 029c
001a5d 4242
001a5e c642
001a5f 0084      	.db 0x00, 0x00, 0x00, 0x00, 0x00, 0x00, 0xC0, 0xF8, 0x9C, 0x02, 0x42, 0x42, 0x42, 0xC6, 0x84, 0x00
001a60 0000
001a61 0000
001a62 0000
001a63 0000
001a64 0000
001a65 0000
001a66 0000
001a67 0000      	.db 0x00, 0x00, 0x00, 0x00, 0x00, 0x00, 0x00, 0x00, 0x00, 0x00, 0x00, 0x00, 0x00, 0x00, 0x00, 0x00
001a68 0000
001a69 0000
001a6a 0000
001a6b 0000
001a6c 0000
001a6d 0000
001a6e 0000
001a6f 0f0e      	.db 0x00, 0x00, 0x00, 0x00, 0x00, 0x00, 0x00, 0x00, 0x00, 0x00, 0x00, 0x00, 0x00, 0x00, 0x0E, 0x0F
001a70 0c0c
001a71 0c0c
001a72 7f7f
001a73 0c0c
001a74 0000
001a75 0000
001a76 0000
001a77 0000      	.db 0x0C, 0x0C, 0x0C, 0x0C, 0x7F, 0x7F, 0x0C, 0x0C, 0x00, 0x00, 0x00, 0x00, 0x00, 0x00, 0x00, 0x00
001a78 0000
001a79 0000
001a7a 0000
001a7b 0000
001a7c ffff
001a7d 0000
001a7e 0000
001a7f 0000      	.db 0x00, 0x00, 0x00, 0x00, 0x00, 0x00, 0x00, 0x00, 0xFF, 0xFF, 0x00, 0x00, 0x00, 0x00, 0x00, 0x00
001a80 0000
001a81 0000
001a82 0000
001a83 0000
001a84 0000
001a85 1800
001a86 2038
001a87 2020      	.db 0x00, 0x00, 0x00, 0x00, 0x00, 0x00, 0x00, 0x00, 0x00, 0x00, 0x00, 0x18, 0x38, 0x20, 0x20, 0x20
001a88 3020
001a89 061f
001a8a 0000
001a8b 0000
001a8c 0000
001a8d 0000
001a8e 0000
001a8f 0000      	.db 0x20, 0x30, 0x1F, 0x06, 0x00, 0x00, 0x00, 0x00, 0x00, 0x00, 0x00, 0x00, 0x00, 0x00, 0x00, 0x00
001a90 0000
001a91 0000
001a92 ffff
001a93 0000
001a94 0000
001a95 0000
001a96 0000
001a97 0000      	.db 0x00, 0x00, 0x00, 0x00, 0xFF, 0xFF, 0x00, 0x00, 0x00, 0x00, 0x00, 0x00, 0x00, 0x00, 0x00, 0x00
001a98 0000
001a99 0000
001a9a 0000
001a9b 0f01
001a9c 301f
001a9d 2020
001a9e 3020
001a9f 061f      	.db 0x00, 0x00, 0x00, 0x00, 0x00, 0x00, 0x01, 0x0F, 0x1F, 0x30, 0x20, 0x20, 0x20, 0x30, 0x1F, 0x06
001aa0 0000
001aa1 0000
001aa2 0000
001aa3 0000
001aa4 0000
001aa5 0000
001aa6 0000
001aa7 0000      	.db 0x00, 0x00, 0x00, 0x00, 0x00, 0x00, 0x00, 0x00, 0x00, 0x00, 0x00, 0x00, 0x00, 0x00, 0x00, 0x00
001aa8 0404
001aa9 0404
001aaa 0404
001aab 0404
001aac 0404
001aad 0404
001aae 0404
001aaf c4c4      	.db 0x04, 0x04, 0x04, 0x04, 0x04, 0x04, 0x04, 0x04, 0x04, 0x04, 0x04, 0x04, 0x04, 0x04, 0xC4, 0xC4
001ab0 c4c4
001ab1 c4c4
001ab2 c4c4
001ab3 04c4
001ab4 0404
001ab5 0404
001ab6 0404
001ab7 0404      	.db 0xC4, 0xC4, 0xC4, 0xC4, 0xC4, 0xC4, 0xC4, 0x04, 0x04, 0x04, 0x04, 0x04, 0x04, 0x04, 0x04, 0x04
001ab8 0404
001ab9 0404
001aba 0404
001abb 0404
001abc ffff
001abd 0404
001abe 0404
001abf 0404      	.db 0x04, 0x04, 0x04, 0x04, 0x04, 0x04, 0x04, 0x04, 0xFF, 0xFF, 0x04, 0x04, 0x04, 0x04, 0x04, 0x04
001ac0 0404
001ac1 0404
001ac2 0404
001ac3 0404
001ac4 0404
001ac5 0404
001ac6 0404
001ac7 0404      	.db 0x04, 0x04, 0x04, 0x04, 0x04, 0x04, 0x04, 0x04, 0x04, 0x04, 0x04, 0x04, 0x04, 0x04, 0x04, 0x04
001ac8 0404
001ac9 0404
001aca 0404
001acb 0404
001acc 0404
001acd 0404
001ace 0404
001acf 0404      	.db 0x04, 0x04, 0x04, 0x04, 0x04, 0x04, 0x04, 0x04, 0x04, 0x04, 0x04, 0x04, 0x04, 0x04, 0x04, 0x04
001ad0 0404
001ad1 0404
001ad2 ffff
001ad3 fcfc
001ad4 fcfc
001ad5 fcfc
001ad6 fcfc
001ad7 fcfc      	.db 0x04, 0x04, 0x04, 0x04, 0xFF, 0xFF, 0xFC, 0xFC, 0xFC, 0xFC, 0xFC, 0xFC, 0xFC, 0xFC, 0xFC, 0xFC
001ad8 fcfc
001ad9 fcfc
001ada fcfc
001adb fcfc
001adc fcfc
001add fcfc
001ade fcfc
001adf fcfc      	.db 0xFC, 0xFC, 0xFC, 0xFC, 0xFC, 0xFC, 0xFC, 0xFC, 0xFC, 0xFC, 0xFC, 0xFC, 0xFC, 0xFC, 0xFC, 0xFC
001ae0 fcfc
001ae1 fcfc
001ae2 fcfc
001ae3 fcfc
001ae4 fcfc
001ae5 fcfc
001ae6 fcfc
001ae7 fcfc      	.db 0xFC, 0xFC, 0xFC, 0xFC, 0xFC, 0xFC, 0xFC, 0xFC, 0xFC, 0xFC, 0xFC, 0xFC, 0xFC, 0xFC, 0xFC, 0xFC
001ae8 0000
001ae9 0000
001aea 0000
001aeb 0000
001aec 0000
001aed 0000
001aee 0000
001aef 0000      	.db 0x00, 0x00, 0x00, 0x00, 0x00, 0x00, 0x00, 0x00, 0x00, 0x00, 0x00, 0x00, 0x00, 0x00, 0x00, 0x00
001af0 0000
001af1 38e0
001af2 030c
001af3 0001
001af4 0000
001af5 0000
001af6 0000
001af7 0000      	.db 0x00, 0x00, 0xE0, 0x38, 0x0C, 0x03, 0x01, 0x00, 0x00, 0x00, 0x00, 0x00, 0x00, 0x00, 0x00, 0x00
001af8 0000
001af9 0000
001afa 0000
001afb 0000
001afc ffff
001afd 0000
001afe 0000
001aff 0000      	.db 0x00, 0x00, 0x00, 0x00, 0x00, 0x00, 0x00, 0x00, 0xFF, 0xFF, 0x00, 0x00, 0x00, 0x00, 0x00, 0x00
001b00 0000
001b01 0000
001b02 0000
001b03 0000
001b04 0000
001b05 8e00
001b06 61df
001b07 6161      	.db 0x00, 0x00, 0x00, 0x00, 0x00, 0x00, 0x00, 0x00, 0x00, 0x00, 0x00, 0x8E, 0xDF, 0x61, 0x61, 0x61
001b08 9f61
001b09 008e
001b0a 0000
001b0b 0000
001b0c 0000
001b0d 0000
001b0e 0000
001b0f 0000      	.db 0x61, 0x9F, 0x8E, 0x00, 0x00, 0x00, 0x00, 0x00, 0x00, 0x00, 0x00, 0x00, 0x00, 0x00, 0x00, 0x00
001b10 0000
001b11 0000
001b12 ffff
001b13 ffff
001b14 ffff
001b15 ffff
001b16 ffff
001b17 ffff      	.db 0x00, 0x00, 0x00, 0x00, 0xFF, 0xFF, 0xFF, 0xFF, 0xFF, 0xFF, 0xFF, 0xFF, 0xFF, 0xFF, 0xFF, 0xFF
001b18 ffff
001b19 ffff
001b1a ffff
001b1b ffff
001b1c ffff
001b1d ffff
001b1e ffff
001b1f ffff      	.db 0xFF, 0xFF, 0xFF, 0xFF, 0xFF, 0xFF, 0xFF, 0xFF, 0xFF, 0xFF, 0xFF, 0xFF, 0xFF, 0xFF, 0xFF, 0xFF
001b20 ffff
001b21 ffff
001b22 ffff
001b23 ffff
001b24 ffff
001b25 ffff
001b26 ffff
001b27 ffff      	.db 0xFF, 0xFF, 0xFF, 0xFF, 0xFF, 0xFF, 0xFF, 0xFF, 0xFF, 0xFF, 0xFF, 0xFF, 0xFF, 0xFF, 0xFF, 0xFF
001b28 0000
001b29 0000
001b2a 0000
001b2b 0000
001b2c 0000
001b2d 0000
001b2e 0000
001b2f 0000      	.db 0x00, 0x00, 0x00, 0x00, 0x00, 0x00, 0x00, 0x00, 0x00, 0x00, 0x00, 0x00, 0x00, 0x00, 0x00, 0x00
001b30 1f10
001b31 0003
001b32 0000
001b33 0000
001b34 0000
001b35 0000
001b36 0000
001b37 0000      	.db 0x10, 0x1F, 0x03, 0x00, 0x00, 0x00, 0x00, 0x00, 0x00, 0x00, 0x00, 0x00, 0x00, 0x00, 0x00, 0x00
001b38 0000
001b39 0000
001b3a 0000
001b3b 0000
001b3c ffff
001b3d 0000
001b3e 0000
001b3f 0000      	.db 0x00, 0x00, 0x00, 0x00, 0x00, 0x00, 0x00, 0x00, 0xFF, 0xFF, 0x00, 0x00, 0x00, 0x00, 0x00, 0x00
001b40 0000
001b41 0000
001b42 0000
001b43 0000
001b44 0000
001b45 0f02
001b46 1018
001b47 1010      	.db 0x00, 0x00, 0x00, 0x00, 0x00, 0x00, 0x00, 0x00, 0x00, 0x00, 0x02, 0x0F, 0x18, 0x10, 0x10, 0x10
001b48 1f10
001b49 000f
001b4a 0000
001b4b 0000
001b4c 0000
001b4d 0000
001b4e 0000
001b4f 0000      	.db 0x10, 0x1F, 0x0F, 0x00, 0x00, 0x00, 0x00, 0x00, 0x00, 0x00, 0x00, 0x00, 0x00, 0x00, 0x00, 0x00
001b50 0000
001b51 0000
001b52 ffff
001b53 ffff
001b54 ffff
001b55 ffff
001b56 ffff
001b57 ffff      	.db 0x00, 0x00, 0x00, 0x00, 0xFF, 0xFF, 0xFF, 0xFF, 0xFF, 0xFF, 0xFF, 0xFF, 0xFF, 0xFF, 0xFF, 0xFF
001b58 ffff
001b59 ffff
001b5a ffff
001b5b ffff
001b5c ffff
001b5d ffff
001b5e ffff
001b5f ffff      	.db 0xFF, 0xFF, 0xFF, 0xFF, 0xFF, 0xFF, 0xFF, 0xFF, 0xFF, 0xFF, 0xFF, 0xFF, 0xFF, 0xFF, 0xFF, 0xFF
001b60 ffff
001b61 ffff
001b62 ffff
001b63 ffff
001b64 ffff
001b65 ffff
001b66 ffff
001b67 ffff      	.db 0xFF, 0xFF, 0xFF, 0xFF, 0xFF, 0xFF, 0xFF, 0xFF, 0xFF, 0xFF, 0xFF, 0xFF, 0xFF, 0xFF, 0xFF, 0xFF
                 
                 ULL:
001b68 0000
001b69 0000
001b6a 0000
001b6b 0000
001b6c 0000
001b6d 0000
001b6e 0000
001b6f 0000      	.db 0x00, 0x00, 0x00, 0x00, 0x00, 0x00, 0x00, 0x00, 0x00, 0x00, 0x00, 0x00, 0x00, 0x00, 0x00, 0x00
001b70 0000
001b71 0000
001b72 0000
001b73 0000
001b74 0000
001b75 0000
001b76 0000
001b77 0000      	.db 0x00, 0x00, 0x00, 0x00, 0x00, 0x00, 0x00, 0x00, 0x00, 0x00, 0x00, 0x00, 0x00, 0x00, 0x00, 0x00
001b78 0000
001b79 0000
001b7a 0000
001b7b 0000
001b7c 0000
001b7d 0000
001b7e 0000
001b7f 8000      	.db 0x00, 0x00, 0x00, 0x00, 0x00, 0x00, 0x00, 0x00, 0x00, 0x00, 0x00, 0x00, 0x00, 0x00, 0x00, 0x80
001b80 00c0
001b81 0000
001b82 0000
001b83 0000
001b84 0000
001b85 0000
001b86 0000
001b87 0000      	.db 0xC0, 0x00, 0x00, 0x00, 0x00, 0x00, 0x00, 0x00, 0x00, 0x00, 0x00, 0x00, 0x00, 0x00, 0x00, 0x00
001b88 0000
001b89 0000
001b8a 0000
001b8b 0000
001b8c 0000
001b8d 0000
001b8e 0000
001b8f 0000      	.db 0x00, 0x00, 0x00, 0x00, 0x00, 0x00, 0x00, 0x00, 0x00, 0x00, 0x00, 0x00, 0x00, 0x00, 0x00, 0x00
001b90 0000
001b91 8000
001b92 0080
001b93 0000
001b94 0000
001b95 0000
001b96 0000
001b97 0000      	.db 0x00, 0x00, 0x00, 0x80, 0x80, 0x00, 0x00, 0x00, 0x00, 0x00, 0x00, 0x00, 0x00, 0x00, 0x00, 0x00
001b98 0000
001b99 0000
001b9a 0000
001b9b 0000
001b9c 0000
001b9d 0000
001b9e 0000
001b9f 0000      	.db 0x00, 0x00, 0x00, 0x00, 0x00, 0x00, 0x00, 0x00, 0x00, 0x00, 0x00, 0x00, 0x00, 0x00, 0x00, 0x00
001ba0 0000
001ba1 0000
001ba2 0000
001ba3 0000
001ba4 0000
001ba5 0000
001ba6 0000
001ba7 0000      	.db 0x00, 0x00, 0x00, 0x00, 0x00, 0x00, 0x00, 0x00, 0x00, 0x00, 0x00, 0x00, 0x00, 0x00, 0x00, 0x00
001ba8 0000
001ba9 0000
001baa 0000
001bab 0000
001bac 0000
001bad 0000
001bae 0000
001baf 0000      	.db 0x00, 0x00, 0x00, 0x00, 0x00, 0x00, 0x00, 0x00, 0x00, 0x00, 0x00, 0x00, 0x00, 0x00, 0x00, 0x00
001bb0 0000
001bb1 0000
001bb2 0000
001bb3 0000
001bb4 0000
001bb5 0000
001bb6 0000
001bb7 0000      	.db 0x00, 0x00, 0x00, 0x00, 0x00, 0x00, 0x00, 0x00, 0x00, 0x00, 0x00, 0x00, 0x00, 0x00, 0x00, 0x00
001bb8 0000
001bb9 0000
001bba 0000
001bbb 8000
001bbc e0c0
001bbd f8f0
001bbe fefc
001bbf ffff      	.db 0x00, 0x00, 0x00, 0x00, 0x00, 0x00, 0x00, 0x80, 0xC0, 0xE0, 0xF0, 0xF8, 0xFC, 0xFE, 0xFF, 0xFF
001bc0 00ff
001bc1 0000
001bc2 0000
001bc3 0000
001bc4 0000
001bc5 0000
001bc6 0000
001bc7 0000      	.db 0xFF, 0x00, 0x00, 0x00, 0x00, 0x00, 0x00, 0x00, 0x00, 0x00, 0x00, 0x00, 0x00, 0x00, 0x00, 0x00
001bc8 0000
001bc9 0000
001bca 0000
001bcb 0000
001bcc 0000
001bcd c080
001bce f0e0
001bcf fcf8      	.db 0x00, 0x00, 0x00, 0x00, 0x00, 0x00, 0x00, 0x00, 0x00, 0x00, 0x80, 0xC0, 0xE0, 0xF0, 0xF8, 0xFC
001bd0 fefe
001bd1 ffff
001bd2 00ff
001bd3 0000
001bd4 0000
001bd5 0000
001bd6 0000
001bd7 0000      	.db 0xFE, 0xFE, 0xFF, 0xFF, 0xFF, 0x00, 0x00, 0x00, 0x00, 0x00, 0x00, 0x00, 0x00, 0x00, 0x00, 0x00
001bd8 0000
001bd9 0000
001bda 0000
001bdb 0000
001bdc 0000
001bdd 0000
001bde 0000
001bdf 0000      	.db 0x00, 0x00, 0x00, 0x00, 0x00, 0x00, 0x00, 0x00, 0x00, 0x00, 0x00, 0x00, 0x00, 0x00, 0x00, 0x00
001be0 0000
001be1 0000
001be2 0000
001be3 0000
001be4 0000
001be5 0000
001be6 0000
001be7 0000      	.db 0x00, 0x00, 0x00, 0x00, 0x00, 0x00, 0x00, 0x00, 0x00, 0x00, 0x00, 0x00, 0x00, 0x00, 0x00, 0x00
001be8 0000
001be9 0000
001bea 0000
001beb 0000
001bec 0000
001bed 0000
001bee 0000
001bef 0000      	.db 0x00, 0x00, 0x00, 0x00, 0x00, 0x00, 0x00, 0x00, 0x00, 0x00, 0x00, 0x00, 0x00, 0x00, 0x00, 0x00
001bf0 0000
001bf1 0000
001bf2 0000
001bf3 0000
001bf4 0000
001bf5 0000
001bf6 0000
001bf7 0000      	.db 0x00, 0x00, 0x00, 0x00, 0x00, 0x00, 0x00, 0x00, 0x00, 0x00, 0x00, 0x00, 0x00, 0x00, 0x00, 0x00
001bf8 f0e0
001bf9 f8f0
001bfa fefc
001bfb ffff
001bfc ffff
001bfd ffff
001bfe ffff
001bff ffff      	.db 0xE0, 0xF0, 0xF0, 0xF8, 0xFC, 0xFE, 0xFF, 0xFF, 0xFF, 0xFF, 0xFF, 0xFF, 0xFF, 0xFF, 0xFF, 0xFF
001c00 e0ff
001c01 0000
001c02 0000
001c03 0000
001c04 0000
001c05 0000
001c06 0000
001c07 0000      	.db 0xFF, 0xE0, 0x00, 0x00, 0x00, 0x00, 0x00, 0x00, 0x00, 0x00, 0x00, 0x00, 0x00, 0x00, 0x00, 0x00
001c08 0000
001c09 0000
001c0a f0e0
001c0b fcf8
001c0c fffe
001c0d ffff
001c0e ffff
001c0f ffff      	.db 0x00, 0x00, 0x00, 0x00, 0xE0, 0xF0, 0xF8, 0xFC, 0xFE, 0xFF, 0xFF, 0xFF, 0xFF, 0xFF, 0xFF, 0xFF
001c10 ffff
001c11 ffff
001c12 00ff
001c13 0000
001c14 0000
001c15 0000
001c16 0000
001c17 0000      	.db 0xFF, 0xFF, 0xFF, 0xFF, 0xFF, 0x00, 0x00, 0x00, 0x00, 0x00, 0x00, 0x00, 0x00, 0x00, 0x00, 0x00
001c18 0000
001c19 0000
001c1a 0000
001c1b 0000
001c1c 0000
001c1d 0000
001c1e 0000
001c1f 0000      	.db 0x00, 0x00, 0x00, 0x00, 0x00, 0x00, 0x00, 0x00, 0x00, 0x00, 0x00, 0x00, 0x00, 0x00, 0x00, 0x00
001c20 0000
001c21 0000
001c22 0000
001c23 0000
001c24 0000
001c25 0000
001c26 0000
001c27 0000      	.db 0x00, 0x00, 0x00, 0x00, 0x00, 0x00, 0x00, 0x00, 0x00, 0x00, 0x00, 0x00, 0x00, 0x00, 0x00, 0x00
001c28 0000
001c29 0000
001c2a 0000
001c2b 0000
001c2c 0000
001c2d 0000
001c2e 0000
001c2f 0000      	.db 0x00, 0x00, 0x00, 0x00, 0x00, 0x00, 0x00, 0x00, 0x00, 0x00, 0x00, 0x00, 0x00, 0x00, 0x00, 0x00
001c30 0000
001c31 0000
001c32 0000
001c33 0000
001c34 0000
001c35 0000
001c36 0000
001c37 0000      	.db 0x00, 0x00, 0x00, 0x00, 0x00, 0x00, 0x00, 0x00, 0x00, 0x00, 0x00, 0x00, 0x00, 0x00, 0x00, 0x00
001c38 ffff
001c39 ffff
001c3a ffff
001c3b ffff
001c3c ffff
001c3d ffff
001c3e ffff
001c3f ffff      	.db 0xFF, 0xFF, 0xFF, 0xFF, 0xFF, 0xFF, 0xFF, 0xFF, 0xFF, 0xFF, 0xFF, 0xFF, 0xFF, 0xFF, 0xFF, 0xFF
001c40 ffff
001c41 0000
001c42 0000
001c43 0000
001c44 0000
001c45 0000
001c46 0000
001c47 0000      	.db 0xFF, 0xFF, 0x00, 0x00, 0x00, 0x00, 0x00, 0x00, 0x00, 0x00, 0x00, 0x00, 0x00, 0x00, 0x00, 0x00
001c48 0000
001c49 0000
001c4a ffff
001c4b ffff
001c4c ffff
001c4d ffff
001c4e ffff
001c4f ffff      	.db 0x00, 0x00, 0x00, 0x00, 0xFF, 0xFF, 0xFF, 0xFF, 0xFF, 0xFF, 0xFF, 0xFF, 0xFF, 0xFF, 0xFF, 0xFF
001c50 ffff
001c51 ffff
001c52 00ff
001c53 0000
001c54 0000
001c55 0000
001c56 0000
001c57 0000      	.db 0xFF, 0xFF, 0xFF, 0xFF, 0xFF, 0x00, 0x00, 0x00, 0x00, 0x00, 0x00, 0x00, 0x00, 0x00, 0x00, 0x00
001c58 0000
001c59 0000
001c5a 0000
001c5b 0000
001c5c 0000
001c5d 0000
001c5e 0000
001c5f 0000      	.db 0x00, 0x00, 0x00, 0x00, 0x00, 0x00, 0x00, 0x00, 0x00, 0x00, 0x00, 0x00, 0x00, 0x00, 0x00, 0x00
001c60 0000
001c61 0000
001c62 0000
001c63 0000
001c64 0000
001c65 0000
001c66 0000
001c67 0000      	.db 0x00, 0x00, 0x00, 0x00, 0x00, 0x00, 0x00, 0x00, 0x00, 0x00, 0x00, 0x00, 0x00, 0x00, 0x00, 0x00
001c68 0000
001c69 0000
001c6a 0000
001c6b 0000
001c6c 0000
001c6d 0000
001c6e 0000
001c6f 0000      	.db 0x00, 0x00, 0x00, 0x00, 0x00, 0x00, 0x00, 0x00, 0x00, 0x00, 0x00, 0x00, 0x00, 0x00, 0x00, 0x00
001c70 0000
001c71 0000
001c72 0000
001c73 0000
001c74 0000
001c75 0000
001c76 0000
001c77 0000      	.db 0x00, 0x00, 0x00, 0x00, 0x00, 0x00, 0x00, 0x00, 0x00, 0x00, 0x00, 0x00, 0x00, 0x00, 0x00, 0x00
001c78 ffff
001c79 ffff
001c7a ffff
001c7b ffff
001c7c ffff
001c7d ffff
001c7e ffff
001c7f ffff      	.db 0xFF, 0xFF, 0xFF, 0xFF, 0xFF, 0xFF, 0xFF, 0xFF, 0xFF, 0xFF, 0xFF, 0xFF, 0xFF, 0xFF, 0xFF, 0xFF
001c80 ffff
001c81 0000
001c82 0000
001c83 0000
001c84 0000
001c85 0000
001c86 0000
001c87 0000      	.db 0xFF, 0xFF, 0x00, 0x00, 0x00, 0x00, 0x00, 0x00, 0x00, 0x00, 0x00, 0x00, 0x00, 0x00, 0x00, 0x00
001c88 0000
001c89 0000
001c8a ffff
001c8b ffff
001c8c ffff
001c8d ffff
001c8e ffff
001c8f ffff      	.db 0x00, 0x00, 0x00, 0x00, 0xFF, 0xFF, 0xFF, 0xFF, 0xFF, 0xFF, 0xFF, 0xFF, 0xFF, 0xFF, 0xFF, 0xFF
001c90 ffff
001c91 ffff
001c92 00ff
001c93 0000
001c94 0000
001c95 0000
001c96 0000
001c97 0000      	.db 0xFF, 0xFF, 0xFF, 0xFF, 0xFF, 0x00, 0x00, 0x00, 0x00, 0x00, 0x00, 0x00, 0x00, 0x00, 0x00, 0x00
001c98 0000
001c99 0000
001c9a 0000
001c9b 0000
001c9c 0000
001c9d 0000
001c9e 0000
001c9f 0000      	.db 0x00, 0x00, 0x00, 0x00, 0x00, 0x00, 0x00, 0x00, 0x00, 0x00, 0x00, 0x00, 0x00, 0x00, 0x00, 0x00
001ca0 0000
001ca1 0000
001ca2 0000
001ca3 0000
001ca4 0000
001ca5 0000
001ca6 0000
001ca7 0000      	.db 0x00, 0x00, 0x00, 0x00, 0x00, 0x00, 0x00, 0x00, 0x00, 0x00, 0x00, 0x00, 0x00, 0x00, 0x00, 0x00
001ca8 0000
001ca9 0000
001caa 0000
001cab 0000
001cac 0000
001cad 0000
001cae 0000
001caf 0000      	.db 0x00, 0x00, 0x00, 0x00, 0x00, 0x00, 0x00, 0x00, 0x00, 0x00, 0x00, 0x00, 0x00, 0x00, 0x00, 0x00
001cb0 0000
001cb1 0000
001cb2 0000
001cb3 0000
001cb4 0000
001cb5 0000
001cb6 0000
001cb7 0000      	.db 0x00, 0x00, 0x00, 0x00, 0x00, 0x00, 0x00, 0x00, 0x00, 0x00, 0x00, 0x00, 0x00, 0x00, 0x00, 0x00
001cb8 ffff
001cb9 ffff
001cba ffff
001cbb ffff
001cbc ffff
001cbd ffff
001cbe ffff
001cbf ffff      	.db 0xFF, 0xFF, 0xFF, 0xFF, 0xFF, 0xFF, 0xFF, 0xFF, 0xFF, 0xFF, 0xFF, 0xFF, 0xFF, 0xFF, 0xFF, 0xFF
001cc0 ffff
001cc1 f8f8
001cc2 f8f8
001cc3 fcf8
001cc4 fcfc
001cc5 fcfc
001cc6 7cfc
001cc7 1c3c      	.db 0xFF, 0xFF, 0xF8, 0xF8, 0xF8, 0xF8, 0xF8, 0xFC, 0xFC, 0xFC, 0xFC, 0xFC, 0xFC, 0x7C, 0x3C, 0x1C
001cc8 040c
001cc9 0000
001cca ffff
001ccb ffff
001ccc ffff
001ccd ffff
001cce ffff
001ccf ffff      	.db 0x0C, 0x04, 0x00, 0x00, 0xFF, 0xFF, 0xFF, 0xFF, 0xFF, 0xFF, 0xFF, 0xFF, 0xFF, 0xFF, 0xFF, 0xFF
001cd0 ffff
001cd1 ffff
001cd2 fcff
001cd3 fcfc
001cd4 fcfc
001cd5 fcfc
001cd6 fcfc
001cd7 fcfc      	.db 0xFF, 0xFF, 0xFF, 0xFF, 0xFF, 0xFC, 0xFC, 0xFC, 0xFC, 0xFC, 0xFC, 0xFC, 0xFC, 0xFC, 0xFC, 0xFC
001cd8 7cfc
001cd9 1c3c
001cda 000c
001cdb 0000
001cdc 0000
001cdd 0000
001cde 0000
001cdf 0000      	.db 0xFC, 0x7C, 0x3C, 0x1C, 0x0C, 0x00, 0x00, 0x00, 0x00, 0x00, 0x00, 0x00, 0x00, 0x00, 0x00, 0x00
001ce0 0000
001ce1 0000
001ce2 0000
001ce3 0000
001ce4 0000
001ce5 0000
001ce6 0000
001ce7 0000      	.db 0x00, 0x00, 0x00, 0x00, 0x00, 0x00, 0x00, 0x00, 0x00, 0x00, 0x00, 0x00, 0x00, 0x00, 0x00, 0x00
001ce8 0000
001ce9 0000
001cea 0000
001ceb 0000
001cec 0000
001ced 0000
001cee 0000
001cef 0000      	.db 0x00, 0x00, 0x00, 0x00, 0x00, 0x00, 0x00, 0x00, 0x00, 0x00, 0x00, 0x00, 0x00, 0x00, 0x00, 0x00
001cf0 0000
001cf1 0000
001cf2 0000
001cf3 0000
001cf4 0000
001cf5 0000
001cf6 0000
001cf7 0000      	.db 0x00, 0x00, 0x00, 0x00, 0x00, 0x00, 0x00, 0x00, 0x00, 0x00, 0x00, 0x00, 0x00, 0x00, 0x00, 0x00
001cf8 ffff
001cf9 ffff
001cfa ffff
001cfb ffff
001cfc ffff
001cfd ffff
001cfe ffff
001cff ffff      	.db 0xFF, 0xFF, 0xFF, 0xFF, 0xFF, 0xFF, 0xFF, 0xFF, 0xFF, 0xFF, 0xFF, 0xFF, 0xFF, 0xFF, 0xFF, 0xFF
001d00 ffff
001d01 ffff
001d02 7fff
001d03 1f3f
001d04 070f
001d05 0103
001d06 0000
001d07 0000      	.db 0xFF, 0xFF, 0xFF, 0xFF, 0xFF, 0x7F, 0x3F, 0x1F, 0x0F, 0x07, 0x03, 0x01, 0x00, 0x00, 0x00, 0x00
001d08 0000
001d09 0000
001d0a ffff
001d0b ffff
001d0c ffff
001d0d ffff
001d0e ffff
001d0f ffff      	.db 0x00, 0x00, 0x00, 0x00, 0xFF, 0xFF, 0xFF, 0xFF, 0xFF, 0xFF, 0xFF, 0xFF, 0xFF, 0xFF, 0xFF, 0xFF
001d10 ffff
001d11 ffff
001d12 ffff
001d13 ffff
001d14 3f7f
001d15 0f1f
001d16 0307
001d17 0101      	.db 0xFF, 0xFF, 0xFF, 0xFF, 0xFF, 0xFF, 0xFF, 0xFF, 0x7F, 0x3F, 0x1F, 0x0F, 0x07, 0x03, 0x01, 0x01
001d18 0000
001d19 0000
001d1a 0000
001d1b 0000
001d1c 0000
001d1d 0000
001d1e 0000
001d1f 0000      	.db 0x00, 0x00, 0x00, 0x00, 0x00, 0x00, 0x00, 0x00, 0x00, 0x00, 0x00, 0x00, 0x00, 0x00, 0x00, 0x00
001d20 0000
001d21 0000
001d22 0000
001d23 0000
001d24 0000
001d25 0000
001d26 0000
001d27 0000      	.db 0x00, 0x00, 0x00, 0x00, 0x00, 0x00, 0x00, 0x00, 0x00, 0x00, 0x00, 0x00, 0x00, 0x00, 0x00, 0x00
001d28 0000
001d29 0000
001d2a 0000
001d2b 0000
001d2c 0000
001d2d 0000
001d2e 0000
001d2f 0000      	.db 0x00, 0x00, 0x00, 0x00, 0x00, 0x00, 0x00, 0x00, 0x00, 0x00, 0x00, 0x00, 0x00, 0x00, 0x00, 0x00
001d30 0000
001d31 0000
001d32 0000
001d33 0000
001d34 0000
001d35 0000
001d36 0000
001d37 0000      	.db 0x00, 0x00, 0x00, 0x00, 0x00, 0x00, 0x00, 0x00, 0x00, 0x00, 0x00, 0x00, 0x00, 0x00, 0x00, 0x00
001d38 0303
001d39 0303
001d3a 0303
001d3b 0303
001d3c 0303
001d3d 0303
001d3e 0303
001d3f 0303      	.db 0x03, 0x03, 0x03, 0x03, 0x03, 0x03, 0x03, 0x03, 0x03, 0x03, 0x03, 0x03, 0x03, 0x03, 0x03, 0x03
001d40 0303
001d41 0103
001d42 0000
001d43 0000
001d44 0000
001d45 0000
001d46 0000
001d47 0000      	.db 0x03, 0x03, 0x03, 0x01, 0x00, 0x00, 0x00, 0x00, 0x00, 0x00, 0x00, 0x00, 0x00, 0x00, 0x00, 0x00
001d48 0000
001d49 0000
001d4a 0303
001d4b 0303
001d4c 0303
001d4d 0303
001d4e 0303
001d4f 0303      	.db 0x00, 0x00, 0x00, 0x00, 0x03, 0x03, 0x03, 0x03, 0x03, 0x03, 0x03, 0x03, 0x03, 0x03, 0x03, 0x03
001d50 0303
001d51 0303
001d52 0303
001d53 0001
001d54 0000
001d55 0000
001d56 0000
001d57 0000      	.db 0x03, 0x03, 0x03, 0x03, 0x03, 0x03, 0x01, 0x00, 0x00, 0x00, 0x00, 0x00, 0x00, 0x00, 0x00, 0x00
001d58 0000
001d59 0000
001d5a 0000
001d5b 0000
001d5c 0000
001d5d 0000
001d5e 0000
001d5f 0000      	.db 0x00, 0x00, 0x00, 0x00, 0x00, 0x00, 0x00, 0x00, 0x00, 0x00, 0x00, 0x00, 0x00, 0x00, 0x00, 0x00
001d60 0000
001d61 0000
001d62 0000
001d63 0000
001d64 0000
001d65 0000
001d66 0000


RESOURCE USE INFORMATION
------------------------

Notice:
The register and instruction counts are symbol table hit counts,
and hence implicitly used resources are not counted, eg, the
'lpm' instruction without operands implicitly uses r0 and z,
none of which are counted.

x,y,z are separate entities in the symbol table and are
counted separately from r26..r31 here.

.dseg memory usage only counts static data declared with .byte

ATmega32 register use summary:
r0 :   3 r1 :   0 r2 :   0 r3 :   0 r4 :   0 r5 :   0 r6 :   0 r7 :   0 
r8 :   0 r9 :   0 r10:   0 r11:   0 r12:   0 r13:   0 r14:   0 r15:   0 
r16:  58 r17:   6 r18:   2 r19:   9 r20:  11 r21:   6 r22:   0 r23:   1 
r24:   4 r25:   6 r26:   3 r27:   3 r28:   1 r29:   5 r30:  16 r31:  30 
x  :   0 y  :   0 z  :   0 
Registers used: 16 out of 35 (45.7%)

ATmega32 instruction use summary:
.lds  :   0 .sts  :   0 adc   :   0 add   :   0 adiw  :   1 and   :   0 
andi  :   0 asr   :   0 bclr  :   0 bld   :   0 brbc  :   0 brbs  :   0 
brcc  :   0 brcs  :   0 break :   0 breq  :  21 brge  :   0 brhc  :   0 
brhs  :   0 brid  :   0 brie  :   0 brlo  :   5 brlt  :   0 brmi  :   0 
brne  :   9 brpl  :   0 brsh  :   0 brtc  :   0 brts  :   0 brvc  :   0 
brvs  :   0 bset  :   0 bst   :   0 call  :   0 cbi   :  14 cbr   :   0 
clc   :   0 clh   :   0 cli   :   0 cln   :   0 clr   :   1 cls   :   0 
clt   :   0 clv   :   0 clz   :   0 com   :   0 cp    :   1 cpc   :   0 
cpi   :  27 cpse  :   0 dec   :   7 eor   :   0 fmul  :   0 fmuls :   0 
fmulsu:   0 icall :   0 ijmp  :   0 in    :   7 inc   :   3 jmp   :   0 
ld    :   0 ldd   :   0 ldi   :  70 lds   :   0 lpm   :   3 lsl   :   0 
lsr   :   0 mov   :   1 movw  :   0 mul   :   0 muls  :   0 mulsu :   0 
neg   :   0 nop   :   1 or    :   2 ori   :   0 out   :  20 pop   :  10 
push  :  10 rcall :  71 ret   :  32 reti  :   0 rjmp  :  27 rol   :   0 
ror   :   0 sbc   :   0 sbci  :   0 sbi   :  16 sbic  :   0 sbis  :   3 
sbiw  :   0 sbr   :   0 sbrc  :   0 sbrs  :   0 sec   :   0 seh   :   0 
sei   :   0 sen   :   0 ser   :   0 ses   :   0 set   :   0 sev   :   0 
sez   :   0 sleep :   0 spm   :   0 st    :   0 std   :   0 sts   :   0 
sub   :   0 subi  :   0 swap  :   0 tst   :   0 wdr   :   0 
Instructions used: 24 out of 113 (21.2%)

ATmega32 memory use summary [bytes]:
Segment   Begin    End      Code   Data   Used    Size   Use%
---------------------------------------------------------------
[.cseg] 0x000000 0x003ad0    720  14336  15056   32768  45.9%
[.dseg] 0x000060 0x000060      0      0      0    2048   0.0%
[.eseg] 0x000000 0x000000      0      0      0    1024   0.0%

Assembly complete, 0 errors, 2 warnings
